
../navy-apps/apps/MD5Arena/build/MD5Arena-riscv64:     file format elf64-littleriscv


Disassembly of section .text:

0000000083000120 <main>:
    83000120:	f8010113          	addi	sp,sp,-128
    83000124:	06813823          	sd	s0,112(sp)
    83000128:	07213023          	sd	s2,96(sp)
    8300012c:	05313c23          	sd	s3,88(sp)
    83000130:	05413823          	sd	s4,80(sp)
    83000134:	05513423          	sd	s5,72(sp)
    83000138:	05613023          	sd	s6,64(sp)
    8300013c:	03713c23          	sd	s7,56(sp)
    83000140:	06113c23          	sd	ra,120(sp)
    83000144:	06913423          	sd	s1,104(sp)
    83000148:	03813823          	sd	s8,48(sp)
    8300014c:	03913423          	sd	s9,40(sp)
    83000150:	03a13023          	sd	s10,32(sp)
    83000154:	01b13c23          	sd	s11,24(sp)
    83000158:	0000a417          	auipc	s0,0xa
    8300015c:	4e840413          	addi	s0,s0,1256 # 8300a640 <_impure_ptr>
    83000160:	00001097          	auipc	ra,0x1
    83000164:	1cc080e7          	jalr	460(ra) # 8300132c <_Z8InitGamev>
    83000168:	00008b97          	auipc	s7,0x8
    8300016c:	f38b8b93          	addi	s7,s7,-200 # 830080a0 <_ZL11propertyArr+0x118>
    83000170:	00008997          	auipc	s3,0x8
    83000174:	ce098993          	addi	s3,s3,-800 # 83007e50 <_getpid_r+0x2c>
    83000178:	00a00a13          	li	s4,10
    8300017c:	00008a97          	auipc	s5,0x8
    83000180:	f34a8a93          	addi	s5,s5,-204 # 830080b0 <_ZL11propertyArr+0x128>
    83000184:	0000b917          	auipc	s2,0xb
    83000188:	8cc90913          	addi	s2,s2,-1844 # 8300aa50 <term>
    8300018c:	00008b17          	auipc	s6,0x8
    83000190:	e84b0b13          	addi	s6,s6,-380 # 83008010 <_ZL11propertyArr+0x88>
    83000194:	00d00493          	li	s1,13
    83000198:	00043783          	ld	a5,0(s0)
    8300019c:	000b8593          	mv	a1,s7
    830001a0:	0187b503          	ld	a0,24(a5)
    830001a4:	00004097          	auipc	ra,0x4
    830001a8:	b68080e7          	jalr	-1176(ra) # 83003d0c <fprintf>
    830001ac:	0000b797          	auipc	a5,0xb
    830001b0:	aa07a223          	sw	zero,-1372(a5) # 8300ac50 <term+0x200>
    830001b4:	0000b797          	auipc	a5,0xb
    830001b8:	88078e23          	sb	zero,-1892(a5) # 8300aa50 <term>
    830001bc:	00100613          	li	a2,1
    830001c0:	00810593          	addi	a1,sp,8
    830001c4:	00000513          	li	a0,0
    830001c8:	00002097          	auipc	ra,0x2
    830001cc:	320080e7          	jalr	800(ra) # 830024e8 <read>
    830001d0:	0015051b          	addiw	a0,a0,1
    830001d4:	00100793          	li	a5,1
    830001d8:	fea7f2e3          	bgeu	a5,a0,830001bc <main+0x9c>
    830001dc:	00043783          	ld	a5,0(s0)
    830001e0:	00814603          	lbu	a2,8(sp)
    830001e4:	00098593          	mv	a1,s3
    830001e8:	0187b503          	ld	a0,24(a5)
    830001ec:	12960063          	beq	a2,s1,8300030c <main+0x1ec>
    830001f0:	11460e63          	beq	a2,s4,8300030c <main+0x1ec>
    830001f4:	000a8593          	mv	a1,s5
    830001f8:	00004097          	auipc	ra,0x4
    830001fc:	b14080e7          	jalr	-1260(ra) # 83003d0c <fprintf>
    83000200:	00814583          	lbu	a1,8(sp)
    83000204:	00090513          	mv	a0,s2
    83000208:	00002097          	auipc	ra,0x2
    8300020c:	dc8080e7          	jalr	-568(ra) # 83001fd0 <_ZN8Terminal8keypressEc>
    83000210:	00050c13          	mv	s8,a0
    83000214:	fa0504e3          	beqz	a0,830001bc <main+0x9c>
    83000218:	00002097          	auipc	ra,0x2
    8300021c:	f3c080e7          	jalr	-196(ra) # 83002154 <strlen>
    83000220:	00050d93          	mv	s11,a0
    83000224:	000b0593          	mv	a1,s6
    83000228:	000c0513          	mv	a0,s8
    8300022c:	00002097          	auipc	ra,0x2
    83000230:	058080e7          	jalr	88(ra) # 83002284 <strtok>
    83000234:	00050d13          	mv	s10,a0
    83000238:	f60500e3          	beqz	a0,83000198 <main+0x78>
    8300023c:	00002097          	auipc	ra,0x2
    83000240:	f18080e7          	jalr	-232(ra) # 83002154 <strlen>
    83000244:	00150493          	addi	s1,a0,1
    83000248:	01bc07b3          	add	a5,s8,s11
    8300024c:	009d04b3          	add	s1,s10,s1
    83000250:	00f4b7b3          	sltu	a5,s1,a5
    83000254:	40f007b3          	neg	a5,a5
    83000258:	00008597          	auipc	a1,0x8
    8300025c:	db058593          	addi	a1,a1,-592 # 83008008 <_ZL11propertyArr+0x80>
    83000260:	000d0513          	mv	a0,s10
    83000264:	00f4f4b3          	and	s1,s1,a5
    83000268:	00008c17          	auipc	s8,0x8
    8300026c:	ef0c0c13          	addi	s8,s8,-272 # 83008158 <_ZL9cmd_table>
    83000270:	00000c93          	li	s9,0
    83000274:	00600d93          	li	s11,6
    83000278:	00002097          	auipc	ra,0x2
    8300027c:	e30080e7          	jalr	-464(ra) # 830020a8 <strcmp>
    83000280:	02050263          	beqz	a0,830002a4 <main+0x184>
    83000284:	001c8c9b          	addiw	s9,s9,1
    83000288:	018c0c13          	addi	s8,s8,24
    8300028c:	09bc8663          	beq	s9,s11,83000318 <main+0x1f8>
    83000290:	000c3583          	ld	a1,0(s8)
    83000294:	000d0513          	mv	a0,s10
    83000298:	00002097          	auipc	ra,0x2
    8300029c:	e10080e7          	jalr	-496(ra) # 830020a8 <strcmp>
    830002a0:	fe0512e3          	bnez	a0,83000284 <main+0x164>
    830002a4:	001c9713          	slli	a4,s9,0x1
    830002a8:	019707b3          	add	a5,a4,s9
    830002ac:	00379793          	slli	a5,a5,0x3
    830002b0:	00008717          	auipc	a4,0x8
    830002b4:	ea870713          	addi	a4,a4,-344 # 83008158 <_ZL9cmd_table>
    830002b8:	00f707b3          	add	a5,a4,a5
    830002bc:	0107b783          	ld	a5,16(a5)
    830002c0:	00048513          	mv	a0,s1
    830002c4:	000780e7          	jalr	a5
    830002c8:	ec0556e3          	bgez	a0,83000194 <main+0x74>
    830002cc:	07813083          	ld	ra,120(sp)
    830002d0:	07013403          	ld	s0,112(sp)
    830002d4:	06813483          	ld	s1,104(sp)
    830002d8:	06013903          	ld	s2,96(sp)
    830002dc:	05813983          	ld	s3,88(sp)
    830002e0:	05013a03          	ld	s4,80(sp)
    830002e4:	04813a83          	ld	s5,72(sp)
    830002e8:	04013b03          	ld	s6,64(sp)
    830002ec:	03813b83          	ld	s7,56(sp)
    830002f0:	03013c03          	ld	s8,48(sp)
    830002f4:	02813c83          	ld	s9,40(sp)
    830002f8:	02013d03          	ld	s10,32(sp)
    830002fc:	01813d83          	ld	s11,24(sp)
    83000300:	00000513          	li	a0,0
    83000304:	08010113          	addi	sp,sp,128
    83000308:	00008067          	ret
    8300030c:	00004097          	auipc	ra,0x4
    83000310:	a00080e7          	jalr	-1536(ra) # 83003d0c <fprintf>
    83000314:	eedff06f          	j	83000200 <main+0xe0>
    83000318:	00043783          	ld	a5,0(s0)
    8300031c:	000d0613          	mv	a2,s10
    83000320:	00008597          	auipc	a1,0x8
    83000324:	d0858593          	addi	a1,a1,-760 # 83008028 <_ZL11propertyArr+0xa0>
    83000328:	0187b503          	ld	a0,24(a5)
    8300032c:	00004097          	auipc	ra,0x4
    83000330:	9e0080e7          	jalr	-1568(ra) # 83003d0c <fprintf>
    83000334:	e61ff06f          	j	83000194 <main+0x74>

0000000083000338 <_Z7MD5InitP7MD5_CTX>:
    83000338:	674527b7          	lui	a5,0x67452
    8300033c:	30178793          	addi	a5,a5,769 # 67452301 <main-0x1bbade1f>
    83000340:	00f52423          	sw	a5,8(a0)
    83000344:	efcdb7b7          	lui	a5,0xefcdb
    83000348:	b8978793          	addi	a5,a5,-1143 # ffffffffefcdab89 <__BSS_END__+0xffffffff6cccff09>
    8300034c:	00f52623          	sw	a5,12(a0)
    83000350:	98bae7b7          	lui	a5,0x98bae
    83000354:	cfe78793          	addi	a5,a5,-770 # ffffffff98badcfe <__BSS_END__+0xffffffff15ba307e>
    83000358:	00f52823          	sw	a5,16(a0)
    8300035c:	103257b7          	lui	a5,0x10325
    83000360:	47678793          	addi	a5,a5,1142 # 10325476 <main-0x72cdacaa>
    83000364:	00052023          	sw	zero,0(a0)
    83000368:	00052223          	sw	zero,4(a0)
    8300036c:	00f52a23          	sw	a5,20(a0)
    83000370:	00008067          	ret

0000000083000374 <_Z9MD5EncodePhPjj>:
    83000374:	08060263          	beqz	a2,830003f8 <_Z9MD5EncodePhPjj+0x84>
    83000378:	00000793          	li	a5,0
    8300037c:	00000893          	li	a7,0
    83000380:	02089693          	slli	a3,a7,0x20
    83000384:	01e6d713          	srli	a4,a3,0x1e
    83000388:	00e58733          	add	a4,a1,a4
    8300038c:	00072803          	lw	a6,0(a4)
    83000390:	02079693          	slli	a3,a5,0x20
    83000394:	0206d693          	srli	a3,a3,0x20
    83000398:	00d506b3          	add	a3,a0,a3
    8300039c:	01068023          	sb	a6,0(a3)
    830003a0:	00072803          	lw	a6,0(a4)
    830003a4:	0017869b          	addiw	a3,a5,1
    830003a8:	02069693          	slli	a3,a3,0x20
    830003ac:	0206d693          	srli	a3,a3,0x20
    830003b0:	00d506b3          	add	a3,a0,a3
    830003b4:	0088581b          	srliw	a6,a6,0x8
    830003b8:	01068023          	sb	a6,0(a3)
    830003bc:	0027869b          	addiw	a3,a5,2
    830003c0:	00275803          	lhu	a6,2(a4)
    830003c4:	02069693          	slli	a3,a3,0x20
    830003c8:	0206d693          	srli	a3,a3,0x20
    830003cc:	00d506b3          	add	a3,a0,a3
    830003d0:	01068023          	sb	a6,0(a3)
    830003d4:	0037869b          	addiw	a3,a5,3
    830003d8:	00374803          	lbu	a6,3(a4)
    830003dc:	02069713          	slli	a4,a3,0x20
    830003e0:	02075713          	srli	a4,a4,0x20
    830003e4:	00e50733          	add	a4,a0,a4
    830003e8:	01070023          	sb	a6,0(a4)
    830003ec:	0047879b          	addiw	a5,a5,4
    830003f0:	0018889b          	addiw	a7,a7,1
    830003f4:	f8c7e6e3          	bltu	a5,a2,83000380 <_Z9MD5EncodePhPjj+0xc>
    830003f8:	00008067          	ret

00000000830003fc <_Z9MD5DecodePjPhj>:
    830003fc:	08060663          	beqz	a2,83000488 <_Z9MD5DecodePjPhj+0x8c>
    83000400:	00000713          	li	a4,0
    83000404:	00000313          	li	t1,0
    83000408:	0027081b          	addiw	a6,a4,2
    8300040c:	0017079b          	addiw	a5,a4,1
    83000410:	02081813          	slli	a6,a6,0x20
    83000414:	02079793          	slli	a5,a5,0x20
    83000418:	02085813          	srli	a6,a6,0x20
    8300041c:	0037069b          	addiw	a3,a4,3
    83000420:	01058833          	add	a6,a1,a6
    83000424:	0207d793          	srli	a5,a5,0x20
    83000428:	00084883          	lbu	a7,0(a6)
    8300042c:	00f587b3          	add	a5,a1,a5
    83000430:	02071813          	slli	a6,a4,0x20
    83000434:	02069693          	slli	a3,a3,0x20
    83000438:	0007c783          	lbu	a5,0(a5)
    8300043c:	02085813          	srli	a6,a6,0x20
    83000440:	0206d693          	srli	a3,a3,0x20
    83000444:	01058833          	add	a6,a1,a6
    83000448:	00d586b3          	add	a3,a1,a3
    8300044c:	00084e03          	lbu	t3,0(a6)
    83000450:	0006c803          	lbu	a6,0(a3)
    83000454:	0087979b          	slliw	a5,a5,0x8
    83000458:	0108969b          	slliw	a3,a7,0x10
    8300045c:	00d7e7b3          	or	a5,a5,a3
    83000460:	02031893          	slli	a7,t1,0x20
    83000464:	01e8d693          	srli	a3,a7,0x1e
    83000468:	01c7e7b3          	or	a5,a5,t3
    8300046c:	0188181b          	slliw	a6,a6,0x18
    83000470:	00d506b3          	add	a3,a0,a3
    83000474:	0107e7b3          	or	a5,a5,a6
    83000478:	00f6a023          	sw	a5,0(a3)
    8300047c:	0047071b          	addiw	a4,a4,4
    83000480:	0013031b          	addiw	t1,t1,1
    83000484:	f8c762e3          	bltu	a4,a2,83000408 <_Z9MD5DecodePjPhj+0xc>
    83000488:	00008067          	ret

000000008300048c <_Z12MD5TransformPjPh>:
    8300048c:	eb010113          	addi	sp,sp,-336
    83000490:	14813023          	sd	s0,320(sp)
    83000494:	12913c23          	sd	s1,312(sp)
    83000498:	13313423          	sd	s3,296(sp)
    8300049c:	00050413          	mv	s0,a0
    830004a0:	00852483          	lw	s1,8(a0)
    830004a4:	00c52983          	lw	s3,12(a0)
    830004a8:	04000613          	li	a2,64
    830004ac:	00010513          	mv	a0,sp
    830004b0:	13213823          	sd	s2,304(sp)
    830004b4:	13413023          	sd	s4,288(sp)
    830004b8:	11513c23          	sd	s5,280(sp)
    830004bc:	11613823          	sd	s6,272(sp)
    830004c0:	11713423          	sd	s7,264(sp)
    830004c4:	11813023          	sd	s8,256(sp)
    830004c8:	14113423          	sd	ra,328(sp)
    830004cc:	00442903          	lw	s2,4(s0)
    830004d0:	00042a03          	lw	s4,0(s0)
    830004d4:	00000097          	auipc	ra,0x0
    830004d8:	f28080e7          	jalr	-216(ra) # 830003fc <_Z9MD5DecodePjPhj>
    830004dc:	00012e03          	lw	t3,0(sp)
    830004e0:	d76aa7b7          	lui	a5,0xd76aa
    830004e4:	0134c733          	xor	a4,s1,s3
    830004e8:	4787879b          	addiw	a5,a5,1144 # ffffffffd76aa478 <__BSS_END__+0xffffffff5469f7f8>
    830004ec:	00fe07bb          	addw	a5,t3,a5
    830004f0:	01277733          	and	a4,a4,s2
    830004f4:	014787bb          	addw	a5,a5,s4
    830004f8:	00e9c733          	xor	a4,s3,a4
    830004fc:	00f7073b          	addw	a4,a4,a5
    83000500:	00412283          	lw	t0,4(sp)
    83000504:	0077179b          	slliw	a5,a4,0x7
    83000508:	0197571b          	srliw	a4,a4,0x19
    8300050c:	00e7e7b3          	or	a5,a5,a4
    83000510:	e8c7b6b7          	lui	a3,0xe8c7b
    83000514:	012787bb          	addw	a5,a5,s2
    83000518:	0124c733          	xor	a4,s1,s2
    8300051c:	7566869b          	addiw	a3,a3,1878 # ffffffffe8c7b756 <__BSS_END__+0xffffffff65c70ad6>
    83000520:	00d286bb          	addw	a3,t0,a3
    83000524:	00f77733          	and	a4,a4,a5
    83000528:	013686bb          	addw	a3,a3,s3
    8300052c:	00e4c733          	xor	a4,s1,a4
    83000530:	00d7073b          	addw	a4,a4,a3
    83000534:	00812583          	lw	a1,8(sp)
    83000538:	00c7181b          	slliw	a6,a4,0xc
    8300053c:	0147571b          	srliw	a4,a4,0x14
    83000540:	00e86833          	or	a6,a6,a4
    83000544:	242076b7          	lui	a3,0x24207
    83000548:	0107883b          	addw	a6,a5,a6
    8300054c:	00f94733          	xor	a4,s2,a5
    83000550:	0db6869b          	addiw	a3,a3,219 # 242070db <main-0x5edf9045>
    83000554:	00d586bb          	addw	a3,a1,a3
    83000558:	01077733          	and	a4,a4,a6
    8300055c:	009686bb          	addw	a3,a3,s1
    83000560:	00e94733          	xor	a4,s2,a4
    83000564:	00d7073b          	addw	a4,a4,a3
    83000568:	00c12483          	lw	s1,12(sp)
    8300056c:	00f7551b          	srliw	a0,a4,0xf
    83000570:	0117171b          	slliw	a4,a4,0x11
    83000574:	00e56533          	or	a0,a0,a4
    83000578:	c1bdd6b7          	lui	a3,0xc1bdd
    8300057c:	00a8053b          	addw	a0,a6,a0
    83000580:	0107c733          	xor	a4,a5,a6
    83000584:	eee6869b          	addiw	a3,a3,-274 # ffffffffc1bdceee <__BSS_END__+0xffffffff3ebd226e>
    83000588:	00d486bb          	addw	a3,s1,a3
    8300058c:	00a77733          	and	a4,a4,a0
    83000590:	012686bb          	addw	a3,a3,s2
    83000594:	00f74733          	xor	a4,a4,a5
    83000598:	00d7073b          	addw	a4,a4,a3
    8300059c:	00a7561b          	srliw	a2,a4,0xa
    830005a0:	01012683          	lw	a3,16(sp)
    830005a4:	0167171b          	slliw	a4,a4,0x16
    830005a8:	00e66633          	or	a2,a2,a4
    830005ac:	f57c18b7          	lui	a7,0xf57c1
    830005b0:	00c5063b          	addw	a2,a0,a2
    830005b4:	00a84733          	xor	a4,a6,a0
    830005b8:	faf8889b          	addiw	a7,a7,-81 # fffffffff57c0faf <__BSS_END__+0xffffffff727b632f>
    830005bc:	011688bb          	addw	a7,a3,a7
    830005c0:	00c77733          	and	a4,a4,a2
    830005c4:	00f887bb          	addw	a5,a7,a5
    830005c8:	01074733          	xor	a4,a4,a6
    830005cc:	00f7073b          	addw	a4,a4,a5
    830005d0:	01412983          	lw	s3,20(sp)
    830005d4:	0077179b          	slliw	a5,a4,0x7
    830005d8:	0197571b          	srliw	a4,a4,0x19
    830005dc:	00e7e7b3          	or	a5,a5,a4
    830005e0:	4787c8b7          	lui	a7,0x4787c
    830005e4:	00f607bb          	addw	a5,a2,a5
    830005e8:	00c54733          	xor	a4,a0,a2
    830005ec:	62a8889b          	addiw	a7,a7,1578 # 4787c62a <main-0x3b783af6>
    830005f0:	011988bb          	addw	a7,s3,a7
    830005f4:	00f77733          	and	a4,a4,a5
    830005f8:	0108883b          	addw	a6,a7,a6
    830005fc:	00a74733          	xor	a4,a4,a0
    83000600:	0107073b          	addw	a4,a4,a6
    83000604:	01812e83          	lw	t4,24(sp)
    83000608:	00c7189b          	slliw	a7,a4,0xc
    8300060c:	0147571b          	srliw	a4,a4,0x14
    83000610:	00e8e8b3          	or	a7,a7,a4
    83000614:	a8304837          	lui	a6,0xa8304
    83000618:	011788bb          	addw	a7,a5,a7
    8300061c:	00f64733          	xor	a4,a2,a5
    83000620:	6138081b          	addiw	a6,a6,1555 # ffffffffa8304613 <__BSS_END__+0xffffffff252f9993>
    83000624:	010e883b          	addw	a6,t4,a6
    83000628:	01177733          	and	a4,a4,a7
    8300062c:	00a8053b          	addw	a0,a6,a0
    83000630:	00c74733          	xor	a4,a4,a2
    83000634:	00a7073b          	addw	a4,a4,a0
    83000638:	01c12303          	lw	t1,28(sp)
    8300063c:	00f7551b          	srliw	a0,a4,0xf
    83000640:	0117171b          	slliw	a4,a4,0x11
    83000644:	00e56533          	or	a0,a0,a4
    83000648:	fd469837          	lui	a6,0xfd469
    8300064c:	00a8853b          	addw	a0,a7,a0
    83000650:	0117c733          	xor	a4,a5,a7
    83000654:	5018081b          	addiw	a6,a6,1281 # fffffffffd469501 <__BSS_END__+0xffffffff7a45e881>
    83000658:	0103083b          	addw	a6,t1,a6
    8300065c:	00a77733          	and	a4,a4,a0
    83000660:	00c8063b          	addw	a2,a6,a2
    83000664:	00f74733          	xor	a4,a4,a5
    83000668:	00c7073b          	addw	a4,a4,a2
    8300066c:	02012f83          	lw	t6,32(sp)
    83000670:	00a7581b          	srliw	a6,a4,0xa
    83000674:	0167171b          	slliw	a4,a4,0x16
    83000678:	00e86833          	or	a6,a6,a4
    8300067c:	6980a637          	lui	a2,0x6980a
    83000680:	0105083b          	addw	a6,a0,a6
    83000684:	00a8c733          	xor	a4,a7,a0
    83000688:	8d86061b          	addiw	a2,a2,-1832 # 698098d8 <main-0x197f6848>
    8300068c:	00cf863b          	addw	a2,t6,a2
    83000690:	01077733          	and	a4,a4,a6
    83000694:	00f607bb          	addw	a5,a2,a5
    83000698:	01174733          	xor	a4,a4,a7
    8300069c:	00f7073b          	addw	a4,a4,a5
    830006a0:	02412603          	lw	a2,36(sp)
    830006a4:	0077179b          	slliw	a5,a4,0x7
    830006a8:	0197571b          	srliw	a4,a4,0x19
    830006ac:	00e7e7b3          	or	a5,a5,a4
    830006b0:	8b44ff37          	lui	t5,0x8b44f
    830006b4:	00f807bb          	addw	a5,a6,a5
    830006b8:	01054733          	xor	a4,a0,a6
    830006bc:	7aff0f1b          	addiw	t5,t5,1967 # ffffffff8b44f7af <__BSS_END__+0xffffffff08444b2f>
    830006c0:	01e60f3b          	addw	t5,a2,t5
    830006c4:	00f77733          	and	a4,a4,a5
    830006c8:	011f08bb          	addw	a7,t5,a7
    830006cc:	00a74733          	xor	a4,a4,a0
    830006d0:	0117073b          	addw	a4,a4,a7
    830006d4:	02812383          	lw	t2,40(sp)
    830006d8:	00c71a1b          	slliw	s4,a4,0xc
    830006dc:	0147571b          	srliw	a4,a4,0x14
    830006e0:	00ea6a33          	or	s4,s4,a4
    830006e4:	ffff68b7          	lui	a7,0xffff6
    830006e8:	01478a3b          	addw	s4,a5,s4
    830006ec:	00f84733          	xor	a4,a6,a5
    830006f0:	bb18889b          	addiw	a7,a7,-1103 # ffffffffffff5bb1 <__BSS_END__+0xffffffff7cfeaf31>
    830006f4:	011388bb          	addw	a7,t2,a7
    830006f8:	01477733          	and	a4,a4,s4
    830006fc:	00a8853b          	addw	a0,a7,a0
    83000700:	01074733          	xor	a4,a4,a6
    83000704:	00a7073b          	addw	a4,a4,a0
    83000708:	00f75f1b          	srliw	t5,a4,0xf
    8300070c:	02c12503          	lw	a0,44(sp)
    83000710:	0117171b          	slliw	a4,a4,0x11
    83000714:	00ef6f33          	or	t5,t5,a4
    83000718:	895cd8b7          	lui	a7,0x895cd
    8300071c:	01ea0f3b          	addw	t5,s4,t5
    83000720:	0147c733          	xor	a4,a5,s4
    83000724:	7be8889b          	addiw	a7,a7,1982 # ffffffff895cd7be <__BSS_END__+0xffffffff065c2b3e>
    83000728:	011508bb          	addw	a7,a0,a7
    8300072c:	01e77733          	and	a4,a4,t5
    83000730:	0108883b          	addw	a6,a7,a6
    83000734:	00f74733          	xor	a4,a4,a5
    83000738:	0107073b          	addw	a4,a4,a6
    8300073c:	03012903          	lw	s2,48(sp)
    83000740:	00a7581b          	srliw	a6,a4,0xa
    83000744:	0167171b          	slliw	a4,a4,0x16
    83000748:	00e86833          	or	a6,a6,a4
    8300074c:	6b901737          	lui	a4,0x6b901
    83000750:	010f083b          	addw	a6,t5,a6
    83000754:	01ea48b3          	xor	a7,s4,t5
    83000758:	1227071b          	addiw	a4,a4,290 # 6b901122 <main-0x176feffe>
    8300075c:	00e9073b          	addw	a4,s2,a4
    83000760:	0108f8b3          	and	a7,a7,a6
    83000764:	00f707bb          	addw	a5,a4,a5
    83000768:	0148c8b3          	xor	a7,a7,s4
    8300076c:	00f888bb          	addw	a7,a7,a5
    83000770:	03412703          	lw	a4,52(sp)
    83000774:	0078979b          	slliw	a5,a7,0x7
    83000778:	0198d89b          	srliw	a7,a7,0x19
    8300077c:	0117e7b3          	or	a5,a5,a7
    83000780:	fd987ab7          	lui	s5,0xfd987
    83000784:	00f807bb          	addw	a5,a6,a5
    83000788:	010f48b3          	xor	a7,t5,a6
    8300078c:	193a8a9b          	addiw	s5,s5,403 # fffffffffd987193 <__BSS_END__+0xffffffff7a97c513>
    83000790:	01570abb          	addw	s5,a4,s5
    83000794:	00f8f8b3          	and	a7,a7,a5
    83000798:	014a8a3b          	addw	s4,s5,s4
    8300079c:	01e8c8b3          	xor	a7,a7,t5
    830007a0:	014888bb          	addw	a7,a7,s4
    830007a4:	00c89b1b          	slliw	s6,a7,0xc
    830007a8:	03812a03          	lw	s4,56(sp)
    830007ac:	0148d89b          	srliw	a7,a7,0x14
    830007b0:	011b6b33          	or	s6,s6,a7
    830007b4:	a6794ab7          	lui	s5,0xa6794
    830007b8:	01678b3b          	addw	s6,a5,s6
    830007bc:	00f848b3          	xor	a7,a6,a5
    830007c0:	38ea8a9b          	addiw	s5,s5,910 # ffffffffa679438e <__BSS_END__+0xffffffff2378970e>
    830007c4:	015a0abb          	addw	s5,s4,s5
    830007c8:	0168f8b3          	and	a7,a7,s6
    830007cc:	01ea8f3b          	addw	t5,s5,t5
    830007d0:	0108c8b3          	xor	a7,a7,a6
    830007d4:	01e888bb          	addw	a7,a7,t5
    830007d8:	00f8da9b          	srliw	s5,a7,0xf
    830007dc:	03c12f03          	lw	t5,60(sp)
    830007e0:	0118989b          	slliw	a7,a7,0x11
    830007e4:	011aeab3          	or	s5,s5,a7
    830007e8:	49b41bb7          	lui	s7,0x49b41
    830007ec:	015b0abb          	addw	s5,s6,s5
    830007f0:	0167c8b3          	xor	a7,a5,s6
    830007f4:	821b8b9b          	addiw	s7,s7,-2015 # 49b40821 <main-0x394bf8ff>
    830007f8:	017f0bbb          	addw	s7,t5,s7
    830007fc:	0158f8b3          	and	a7,a7,s5
    83000800:	010b883b          	addw	a6,s7,a6
    83000804:	00f8c8b3          	xor	a7,a7,a5
    83000808:	010888bb          	addw	a7,a7,a6
    8300080c:	00a8d81b          	srliw	a6,a7,0xa
    83000810:	0168989b          	slliw	a7,a7,0x16
    83000814:	01186833          	or	a6,a6,a7
    83000818:	010a883b          	addw	a6,s5,a6
    8300081c:	f61e2bb7          	lui	s7,0xf61e2
    83000820:	010ac8b3          	xor	a7,s5,a6
    83000824:	562b8b9b          	addiw	s7,s7,1378 # fffffffff61e2562 <__BSS_END__+0xffffffff731d78e2>
    83000828:	01728bbb          	addw	s7,t0,s7
    8300082c:	0168f8b3          	and	a7,a7,s6
    83000830:	00fb87bb          	addw	a5,s7,a5
    83000834:	0158c8b3          	xor	a7,a7,s5
    83000838:	00f888bb          	addw	a7,a7,a5
    8300083c:	0058979b          	slliw	a5,a7,0x5
    83000840:	01b8d89b          	srliw	a7,a7,0x1b
    83000844:	0117e7b3          	or	a5,a5,a7
    83000848:	00f807bb          	addw	a5,a6,a5
    8300084c:	c040bbb7          	lui	s7,0xc040b
    83000850:	00f848b3          	xor	a7,a6,a5
    83000854:	340b8b9b          	addiw	s7,s7,832 # ffffffffc040b340 <__BSS_END__+0xffffffff3d4006c0>
    83000858:	017e8bbb          	addw	s7,t4,s7
    8300085c:	0158f8b3          	and	a7,a7,s5
    83000860:	016b8b3b          	addw	s6,s7,s6
    83000864:	0108c8b3          	xor	a7,a7,a6
    83000868:	016888bb          	addw	a7,a7,s6
    8300086c:	00989b1b          	slliw	s6,a7,0x9
    83000870:	0178d89b          	srliw	a7,a7,0x17
    83000874:	011b6b33          	or	s6,s6,a7
    83000878:	01678b3b          	addw	s6,a5,s6
    8300087c:	265e6bb7          	lui	s7,0x265e6
    83000880:	0167c8b3          	xor	a7,a5,s6
    83000884:	a51b8b9b          	addiw	s7,s7,-1455 # 265e5a51 <main-0x5ca1a6cf>
    83000888:	01750bbb          	addw	s7,a0,s7
    8300088c:	0108f8b3          	and	a7,a7,a6
    83000890:	015b8abb          	addw	s5,s7,s5
    83000894:	00f8c8b3          	xor	a7,a7,a5
    83000898:	015888bb          	addw	a7,a7,s5
    8300089c:	00e89a9b          	slliw	s5,a7,0xe
    830008a0:	0128d89b          	srliw	a7,a7,0x12
    830008a4:	011aeab3          	or	s5,s5,a7
    830008a8:	015b0abb          	addw	s5,s6,s5
    830008ac:	e9b6cbb7          	lui	s7,0xe9b6c
    830008b0:	015b48b3          	xor	a7,s6,s5
    830008b4:	7aab8b9b          	addiw	s7,s7,1962 # ffffffffe9b6c7aa <__BSS_END__+0xffffffff66b61b2a>
    830008b8:	017e0bbb          	addw	s7,t3,s7
    830008bc:	00f8f8b3          	and	a7,a7,a5
    830008c0:	010b883b          	addw	a6,s7,a6
    830008c4:	0168c8b3          	xor	a7,a7,s6
    830008c8:	010888bb          	addw	a7,a7,a6
    830008cc:	00c8d81b          	srliw	a6,a7,0xc
    830008d0:	0148989b          	slliw	a7,a7,0x14
    830008d4:	01186833          	or	a6,a6,a7
    830008d8:	010a883b          	addw	a6,s5,a6
    830008dc:	d62f1bb7          	lui	s7,0xd62f1
    830008e0:	010ac8b3          	xor	a7,s5,a6
    830008e4:	05db8b9b          	addiw	s7,s7,93 # ffffffffd62f105d <__BSS_END__+0xffffffff532e63dd>
    830008e8:	01798bbb          	addw	s7,s3,s7
    830008ec:	0168f8b3          	and	a7,a7,s6
    830008f0:	00fb87bb          	addw	a5,s7,a5
    830008f4:	0158c8b3          	xor	a7,a7,s5
    830008f8:	00f888bb          	addw	a7,a7,a5
    830008fc:	0058979b          	slliw	a5,a7,0x5
    83000900:	01b8d89b          	srliw	a7,a7,0x1b
    83000904:	0117e7b3          	or	a5,a5,a7
    83000908:	00f807bb          	addw	a5,a6,a5
    8300090c:	02441bb7          	lui	s7,0x2441
    83000910:	00f848b3          	xor	a7,a6,a5
    83000914:	453b8b9b          	addiw	s7,s7,1107 # 2441453 <main-0x80bbeccd>
    83000918:	01738bbb          	addw	s7,t2,s7
    8300091c:	0158f8b3          	and	a7,a7,s5
    83000920:	016b8b3b          	addw	s6,s7,s6
    83000924:	0108c8b3          	xor	a7,a7,a6
    83000928:	016888bb          	addw	a7,a7,s6
    8300092c:	00989b1b          	slliw	s6,a7,0x9
    83000930:	0178d89b          	srliw	a7,a7,0x17
    83000934:	011b6b33          	or	s6,s6,a7
    83000938:	01678b3b          	addw	s6,a5,s6
    8300093c:	d8a1ebb7          	lui	s7,0xd8a1e
    83000940:	0167c8b3          	xor	a7,a5,s6
    83000944:	681b8b9b          	addiw	s7,s7,1665 # ffffffffd8a1e681 <__BSS_END__+0xffffffff55a13a01>
    83000948:	017f0bbb          	addw	s7,t5,s7
    8300094c:	0108f8b3          	and	a7,a7,a6
    83000950:	015b8abb          	addw	s5,s7,s5
    83000954:	00f8c8b3          	xor	a7,a7,a5
    83000958:	015888bb          	addw	a7,a7,s5
    8300095c:	00e89a9b          	slliw	s5,a7,0xe
    83000960:	0128d89b          	srliw	a7,a7,0x12
    83000964:	011aeab3          	or	s5,s5,a7
    83000968:	015b0abb          	addw	s5,s6,s5
    8300096c:	e7d40bb7          	lui	s7,0xe7d40
    83000970:	015b48b3          	xor	a7,s6,s5
    83000974:	bc8b8b9b          	addiw	s7,s7,-1080 # ffffffffe7d3fbc8 <__BSS_END__+0xffffffff64d34f48>
    83000978:	01768bbb          	addw	s7,a3,s7
    8300097c:	00f8f8b3          	and	a7,a7,a5
    83000980:	010b883b          	addw	a6,s7,a6
    83000984:	0168c8b3          	xor	a7,a7,s6
    83000988:	010888bb          	addw	a7,a7,a6
    8300098c:	00c8d81b          	srliw	a6,a7,0xc
    83000990:	0148989b          	slliw	a7,a7,0x14
    83000994:	01186833          	or	a6,a6,a7
    83000998:	010a883b          	addw	a6,s5,a6
    8300099c:	21e1dbb7          	lui	s7,0x21e1d
    830009a0:	010ac8b3          	xor	a7,s5,a6
    830009a4:	de6b8b9b          	addiw	s7,s7,-538 # 21e1cde6 <main-0x611e333a>
    830009a8:	01760bbb          	addw	s7,a2,s7
    830009ac:	0168f8b3          	and	a7,a7,s6
    830009b0:	00fb87bb          	addw	a5,s7,a5
    830009b4:	0158c8b3          	xor	a7,a7,s5
    830009b8:	00f888bb          	addw	a7,a7,a5
    830009bc:	0058979b          	slliw	a5,a7,0x5
    830009c0:	01b8d89b          	srliw	a7,a7,0x1b
    830009c4:	0117e7b3          	or	a5,a5,a7
    830009c8:	00f807bb          	addw	a5,a6,a5
    830009cc:	c3370bb7          	lui	s7,0xc3370
    830009d0:	00f848b3          	xor	a7,a6,a5
    830009d4:	7d6b8b9b          	addiw	s7,s7,2006 # ffffffffc33707d6 <__BSS_END__+0xffffffff40365b56>
    830009d8:	017a0bbb          	addw	s7,s4,s7
    830009dc:	0158f8b3          	and	a7,a7,s5
    830009e0:	016b8b3b          	addw	s6,s7,s6
    830009e4:	0108c8b3          	xor	a7,a7,a6
    830009e8:	016888bb          	addw	a7,a7,s6
    830009ec:	00989b1b          	slliw	s6,a7,0x9
    830009f0:	0178d89b          	srliw	a7,a7,0x17
    830009f4:	011b6b33          	or	s6,s6,a7
    830009f8:	01678b3b          	addw	s6,a5,s6
    830009fc:	f4d51bb7          	lui	s7,0xf4d51
    83000a00:	0167c8b3          	xor	a7,a5,s6
    83000a04:	d87b8b9b          	addiw	s7,s7,-633 # fffffffff4d50d87 <__BSS_END__+0xffffffff71d46107>
    83000a08:	01748bbb          	addw	s7,s1,s7
    83000a0c:	0108f8b3          	and	a7,a7,a6
    83000a10:	015b8abb          	addw	s5,s7,s5
    83000a14:	00f8c8b3          	xor	a7,a7,a5
    83000a18:	015888bb          	addw	a7,a7,s5
    83000a1c:	00e89a9b          	slliw	s5,a7,0xe
    83000a20:	0128d89b          	srliw	a7,a7,0x12
    83000a24:	011aeab3          	or	s5,s5,a7
    83000a28:	015b0abb          	addw	s5,s6,s5
    83000a2c:	455a1bb7          	lui	s7,0x455a1
    83000a30:	015b48b3          	xor	a7,s6,s5
    83000a34:	4edb8b9b          	addiw	s7,s7,1261 # 455a14ed <main-0x3da5ec33>
    83000a38:	017f8bbb          	addw	s7,t6,s7
    83000a3c:	00f8f8b3          	and	a7,a7,a5
    83000a40:	010b883b          	addw	a6,s7,a6
    83000a44:	0168c8b3          	xor	a7,a7,s6
    83000a48:	010888bb          	addw	a7,a7,a6
    83000a4c:	00c8d81b          	srliw	a6,a7,0xc
    83000a50:	0148989b          	slliw	a7,a7,0x14
    83000a54:	01186833          	or	a6,a6,a7
    83000a58:	010a883b          	addw	a6,s5,a6
    83000a5c:	a9e3fbb7          	lui	s7,0xa9e3f
    83000a60:	010ac8b3          	xor	a7,s5,a6
    83000a64:	905b8b9b          	addiw	s7,s7,-1787 # ffffffffa9e3e905 <__BSS_END__+0xffffffff26e33c85>
    83000a68:	01770bbb          	addw	s7,a4,s7
    83000a6c:	0168f8b3          	and	a7,a7,s6
    83000a70:	00fb87bb          	addw	a5,s7,a5
    83000a74:	0158c8b3          	xor	a7,a7,s5
    83000a78:	00f888bb          	addw	a7,a7,a5
    83000a7c:	0058979b          	slliw	a5,a7,0x5
    83000a80:	01b8d89b          	srliw	a7,a7,0x1b
    83000a84:	0117e7b3          	or	a5,a5,a7
    83000a88:	00f807bb          	addw	a5,a6,a5
    83000a8c:	fcefabb7          	lui	s7,0xfcefa
    83000a90:	00f848b3          	xor	a7,a6,a5
    83000a94:	3f8b8b9b          	addiw	s7,s7,1016 # fffffffffcefa3f8 <__BSS_END__+0xffffffff79eef778>
    83000a98:	01758bbb          	addw	s7,a1,s7
    83000a9c:	0158f8b3          	and	a7,a7,s5
    83000aa0:	016b8b3b          	addw	s6,s7,s6
    83000aa4:	0108c8b3          	xor	a7,a7,a6
    83000aa8:	016888bb          	addw	a7,a7,s6
    83000aac:	00989b1b          	slliw	s6,a7,0x9
    83000ab0:	0178d89b          	srliw	a7,a7,0x17
    83000ab4:	011b6b33          	or	s6,s6,a7
    83000ab8:	01678b3b          	addw	s6,a5,s6
    83000abc:	676f0bb7          	lui	s7,0x676f0
    83000ac0:	0167c8b3          	xor	a7,a5,s6
    83000ac4:	2d9b8b9b          	addiw	s7,s7,729 # 676f02d9 <main-0x1b90fe47>
    83000ac8:	01730bbb          	addw	s7,t1,s7
    83000acc:	0108f8b3          	and	a7,a7,a6
    83000ad0:	015b8abb          	addw	s5,s7,s5
    83000ad4:	00f8c8b3          	xor	a7,a7,a5
    83000ad8:	015888bb          	addw	a7,a7,s5
    83000adc:	00e89b9b          	slliw	s7,a7,0xe
    83000ae0:	0128d89b          	srliw	a7,a7,0x12
    83000ae4:	011bebb3          	or	s7,s7,a7
    83000ae8:	017b0bbb          	addw	s7,s6,s7
    83000aec:	017b48b3          	xor	a7,s6,s7
    83000af0:	8d2a5c37          	lui	s8,0x8d2a5
    83000af4:	0008889b          	sext.w	a7,a7
    83000af8:	c8ac0c1b          	addiw	s8,s8,-886 # ffffffff8d2a4c8a <__BSS_END__+0xffffffff0a29a00a>
    83000afc:	00f8fab3          	and	s5,a7,a5
    83000b00:	01890c3b          	addw	s8,s2,s8
    83000b04:	010c0c3b          	addw	s8,s8,a6
    83000b08:	016ac833          	xor	a6,s5,s6
    83000b0c:	0188083b          	addw	a6,a6,s8
    83000b10:	00c85a9b          	srliw	s5,a6,0xc
    83000b14:	0148181b          	slliw	a6,a6,0x14
    83000b18:	010aeab3          	or	s5,s5,a6
    83000b1c:	fffa4837          	lui	a6,0xfffa4
    83000b20:	9428081b          	addiw	a6,a6,-1726 # fffffffffffa3942 <__BSS_END__+0xffffffff7cf98cc2>
    83000b24:	015b8abb          	addw	s5,s7,s5
    83000b28:	0109883b          	addw	a6,s3,a6
    83000b2c:	00f8083b          	addw	a6,a6,a5
    83000b30:	0158c7b3          	xor	a5,a7,s5
    83000b34:	010787bb          	addw	a5,a5,a6
    83000b38:	00479c1b          	slliw	s8,a5,0x4
    83000b3c:	8771f837          	lui	a6,0x8771f
    83000b40:	01c7d79b          	srliw	a5,a5,0x1c
    83000b44:	00fc6c33          	or	s8,s8,a5
    83000b48:	6818081b          	addiw	a6,a6,1665 # ffffffff8771f681 <__BSS_END__+0xffffffff04714a01>
    83000b4c:	018a8c3b          	addw	s8,s5,s8
    83000b50:	015bc7b3          	xor	a5,s7,s5
    83000b54:	010f883b          	addw	a6,t6,a6
    83000b58:	0168083b          	addw	a6,a6,s6
    83000b5c:	0187c7b3          	xor	a5,a5,s8
    83000b60:	010787bb          	addw	a5,a5,a6
    83000b64:	00b7989b          	slliw	a7,a5,0xb
    83000b68:	6d9d6837          	lui	a6,0x6d9d6
    83000b6c:	0157d79b          	srliw	a5,a5,0x15
    83000b70:	00f8e8b3          	or	a7,a7,a5
    83000b74:	1228081b          	addiw	a6,a6,290 # 6d9d6122 <main-0x15629ffe>
    83000b78:	011c08bb          	addw	a7,s8,a7
    83000b7c:	018ac7b3          	xor	a5,s5,s8
    83000b80:	0105083b          	addw	a6,a0,a6
    83000b84:	0178083b          	addw	a6,a6,s7
    83000b88:	0117c7b3          	xor	a5,a5,a7
    83000b8c:	010787bb          	addw	a5,a5,a6
    83000b90:	0107981b          	slliw	a6,a5,0x10
    83000b94:	fde54b37          	lui	s6,0xfde54
    83000b98:	0107d79b          	srliw	a5,a5,0x10
    83000b9c:	00f86833          	or	a6,a6,a5
    83000ba0:	80cb0b1b          	addiw	s6,s6,-2036 # fffffffffde5380c <__BSS_END__+0xffffffff7ae48b8c>
    83000ba4:	0108883b          	addw	a6,a7,a6
    83000ba8:	011c47b3          	xor	a5,s8,a7
    83000bac:	016a0b3b          	addw	s6,s4,s6
    83000bb0:	015b0b3b          	addw	s6,s6,s5
    83000bb4:	0107cab3          	xor	s5,a5,a6
    83000bb8:	016a8abb          	addw	s5,s5,s6
    83000bbc:	009ad79b          	srliw	a5,s5,0x9
    83000bc0:	017a9a9b          	slliw	s5,s5,0x17
    83000bc4:	0157e7b3          	or	a5,a5,s5
    83000bc8:	a4befab7          	lui	s5,0xa4bef
    83000bcc:	a44a8a9b          	addiw	s5,s5,-1468 # ffffffffa4beea44 <__BSS_END__+0xffffffff21be3dc4>
    83000bd0:	00f807bb          	addw	a5,a6,a5
    83000bd4:	0108cb33          	xor	s6,a7,a6
    83000bd8:	01528abb          	addw	s5,t0,s5
    83000bdc:	018a8abb          	addw	s5,s5,s8
    83000be0:	00fb4b33          	xor	s6,s6,a5
    83000be4:	015b0b3b          	addw	s6,s6,s5
    83000be8:	004b1a9b          	slliw	s5,s6,0x4
    83000bec:	4bdedbb7          	lui	s7,0x4bded
    83000bf0:	01cb5b1b          	srliw	s6,s6,0x1c
    83000bf4:	016aeab3          	or	s5,s5,s6
    83000bf8:	fa9b8b9b          	addiw	s7,s7,-87 # 4bdecfa9 <main-0x37213177>
    83000bfc:	01578abb          	addw	s5,a5,s5
    83000c00:	01768bbb          	addw	s7,a3,s7
    83000c04:	00f84b33          	xor	s6,a6,a5
    83000c08:	011b88bb          	addw	a7,s7,a7
    83000c0c:	015b4b33          	xor	s6,s6,s5
    83000c10:	011b0b3b          	addw	s6,s6,a7
    83000c14:	00bb189b          	slliw	a7,s6,0xb
    83000c18:	f6bb5bb7          	lui	s7,0xf6bb5
    83000c1c:	015b5b1b          	srliw	s6,s6,0x15
    83000c20:	0168e8b3          	or	a7,a7,s6
    83000c24:	b60b8b9b          	addiw	s7,s7,-1184 # fffffffff6bb4b60 <__BSS_END__+0xffffffff73ba9ee0>
    83000c28:	011a88bb          	addw	a7,s5,a7
    83000c2c:	01730bbb          	addw	s7,t1,s7
    83000c30:	0157cb33          	xor	s6,a5,s5
    83000c34:	010b883b          	addw	a6,s7,a6
    83000c38:	011b4b33          	xor	s6,s6,a7
    83000c3c:	010b0b3b          	addw	s6,s6,a6
    83000c40:	010b181b          	slliw	a6,s6,0x10
    83000c44:	bebfcbb7          	lui	s7,0xbebfc
    83000c48:	010b5b1b          	srliw	s6,s6,0x10
    83000c4c:	01686833          	or	a6,a6,s6
    83000c50:	c70b8b9b          	addiw	s7,s7,-912 # ffffffffbebfbc70 <__BSS_END__+0xffffffff3bbf0ff0>
    83000c54:	0108883b          	addw	a6,a7,a6
    83000c58:	01738bbb          	addw	s7,t2,s7
    83000c5c:	011acb33          	xor	s6,s5,a7
    83000c60:	00fb87bb          	addw	a5,s7,a5
    83000c64:	010b4b33          	xor	s6,s6,a6
    83000c68:	00fb0b3b          	addw	s6,s6,a5
    83000c6c:	009b579b          	srliw	a5,s6,0x9
    83000c70:	289b8bb7          	lui	s7,0x289b8
    83000c74:	017b1b1b          	slliw	s6,s6,0x17
    83000c78:	0167e7b3          	or	a5,a5,s6
    83000c7c:	ec6b8b9b          	addiw	s7,s7,-314 # 289b7ec6 <main-0x5a64825a>
    83000c80:	00f807bb          	addw	a5,a6,a5
    83000c84:	01770bbb          	addw	s7,a4,s7
    83000c88:	0108cb33          	xor	s6,a7,a6
    83000c8c:	015b8abb          	addw	s5,s7,s5
    83000c90:	00fb4b33          	xor	s6,s6,a5
    83000c94:	015b0b3b          	addw	s6,s6,s5
    83000c98:	004b1a9b          	slliw	s5,s6,0x4
    83000c9c:	eaa12bb7          	lui	s7,0xeaa12
    83000ca0:	01cb5b1b          	srliw	s6,s6,0x1c
    83000ca4:	016aeab3          	or	s5,s5,s6
    83000ca8:	7fab8b9b          	addiw	s7,s7,2042 # ffffffffeaa127fa <__BSS_END__+0xffffffff67a07b7a>
    83000cac:	01578abb          	addw	s5,a5,s5
    83000cb0:	017e0bbb          	addw	s7,t3,s7
    83000cb4:	00f84b33          	xor	s6,a6,a5
    83000cb8:	011b88bb          	addw	a7,s7,a7
    83000cbc:	015b4b33          	xor	s6,s6,s5
    83000cc0:	011b0b3b          	addw	s6,s6,a7
    83000cc4:	00bb189b          	slliw	a7,s6,0xb
    83000cc8:	d4ef3bb7          	lui	s7,0xd4ef3
    83000ccc:	015b5b1b          	srliw	s6,s6,0x15
    83000cd0:	0168e8b3          	or	a7,a7,s6
    83000cd4:	085b8b9b          	addiw	s7,s7,133 # ffffffffd4ef3085 <__BSS_END__+0xffffffff51ee8405>
    83000cd8:	011a88bb          	addw	a7,s5,a7
    83000cdc:	01748bbb          	addw	s7,s1,s7
    83000ce0:	0157cb33          	xor	s6,a5,s5
    83000ce4:	010b883b          	addw	a6,s7,a6
    83000ce8:	011b4b33          	xor	s6,s6,a7
    83000cec:	010b0b3b          	addw	s6,s6,a6
    83000cf0:	010b181b          	slliw	a6,s6,0x10
    83000cf4:	04882bb7          	lui	s7,0x4882
    83000cf8:	010b5b1b          	srliw	s6,s6,0x10
    83000cfc:	01686833          	or	a6,a6,s6
    83000d00:	d05b8b9b          	addiw	s7,s7,-763 # 4881d05 <main-0x7e77e41b>
    83000d04:	0108883b          	addw	a6,a7,a6
    83000d08:	017e8bbb          	addw	s7,t4,s7
    83000d0c:	011acb33          	xor	s6,s5,a7
    83000d10:	00fb87bb          	addw	a5,s7,a5
    83000d14:	010b4b33          	xor	s6,s6,a6
    83000d18:	00fb0b3b          	addw	s6,s6,a5
    83000d1c:	009b579b          	srliw	a5,s6,0x9
    83000d20:	d9d4dbb7          	lui	s7,0xd9d4d
    83000d24:	017b1b1b          	slliw	s6,s6,0x17
    83000d28:	0167e7b3          	or	a5,a5,s6
    83000d2c:	039b8b9b          	addiw	s7,s7,57 # ffffffffd9d4d039 <__BSS_END__+0xffffffff56d423b9>
    83000d30:	00f807bb          	addw	a5,a6,a5
    83000d34:	0108cb33          	xor	s6,a7,a6
    83000d38:	01760bbb          	addw	s7,a2,s7
    83000d3c:	015b8bbb          	addw	s7,s7,s5
    83000d40:	00fb4ab3          	xor	s5,s6,a5
    83000d44:	017a8abb          	addw	s5,s5,s7
    83000d48:	004a9b1b          	slliw	s6,s5,0x4
    83000d4c:	e6dbabb7          	lui	s7,0xe6dba
    83000d50:	01cada9b          	srliw	s5,s5,0x1c
    83000d54:	015b6b33          	or	s6,s6,s5
    83000d58:	9e5b8b9b          	addiw	s7,s7,-1563 # ffffffffe6db99e5 <__BSS_END__+0xffffffff63daed65>
    83000d5c:	01678b3b          	addw	s6,a5,s6
    83000d60:	00f84ab3          	xor	s5,a6,a5
    83000d64:	01790bbb          	addw	s7,s2,s7
    83000d68:	011b8bbb          	addw	s7,s7,a7
    83000d6c:	016ac8b3          	xor	a7,s5,s6
    83000d70:	017888bb          	addw	a7,a7,s7
    83000d74:	00b89a9b          	slliw	s5,a7,0xb
    83000d78:	1fa28bb7          	lui	s7,0x1fa28
    83000d7c:	0158d89b          	srliw	a7,a7,0x15
    83000d80:	011aeab3          	or	s5,s5,a7
    83000d84:	cf8b8b9b          	addiw	s7,s7,-776 # 1fa27cf8 <main-0x635d8428>
    83000d88:	015b0abb          	addw	s5,s6,s5
    83000d8c:	0167c8b3          	xor	a7,a5,s6
    83000d90:	017f0bbb          	addw	s7,t5,s7
    83000d94:	010b8bbb          	addw	s7,s7,a6
    83000d98:	0158c833          	xor	a6,a7,s5
    83000d9c:	0178083b          	addw	a6,a6,s7
    83000da0:	0108189b          	slliw	a7,a6,0x10
    83000da4:	c4ac5bb7          	lui	s7,0xc4ac5
    83000da8:	0108581b          	srliw	a6,a6,0x10
    83000dac:	0108e8b3          	or	a7,a7,a6
    83000db0:	665b8b9b          	addiw	s7,s7,1637 # ffffffffc4ac5665 <__BSS_END__+0xffffffff41aba9e5>
    83000db4:	011a88bb          	addw	a7,s5,a7
    83000db8:	015b4833          	xor	a6,s6,s5
    83000dbc:	01758bbb          	addw	s7,a1,s7
    83000dc0:	00fb8bbb          	addw	s7,s7,a5
    83000dc4:	011847b3          	xor	a5,a6,a7
    83000dc8:	017787bb          	addw	a5,a5,s7
    83000dcc:	0097d81b          	srliw	a6,a5,0x9
    83000dd0:	0177979b          	slliw	a5,a5,0x17
    83000dd4:	00f86833          	or	a6,a6,a5
    83000dd8:	f4292bb7          	lui	s7,0xf4292
    83000ddc:	0108883b          	addw	a6,a7,a6
    83000de0:	fffac793          	not	a5,s5
    83000de4:	244b8b9b          	addiw	s7,s7,580 # fffffffff4292244 <__BSS_END__+0xffffffff712875c4>
    83000de8:	017e0e3b          	addw	t3,t3,s7
    83000dec:	0107e7b3          	or	a5,a5,a6
    83000df0:	016e0e3b          	addw	t3,t3,s6
    83000df4:	0117c7b3          	xor	a5,a5,a7
    83000df8:	01c787bb          	addw	a5,a5,t3
    83000dfc:	00679e1b          	slliw	t3,a5,0x6
    83000e00:	01a7d79b          	srliw	a5,a5,0x1a
    83000e04:	00fe6e33          	or	t3,t3,a5
    83000e08:	432b0b37          	lui	s6,0x432b0
    83000e0c:	01c80e3b          	addw	t3,a6,t3
    83000e10:	fff8c793          	not	a5,a7
    83000e14:	f97b0b1b          	addiw	s6,s6,-105 # 432aff97 <main-0x3fd50189>
    83000e18:	0163033b          	addw	t1,t1,s6
    83000e1c:	01c7e7b3          	or	a5,a5,t3
    83000e20:	0153033b          	addw	t1,t1,s5
    83000e24:	0107c7b3          	xor	a5,a5,a6
    83000e28:	006787bb          	addw	a5,a5,t1
    83000e2c:	00a7931b          	slliw	t1,a5,0xa
    83000e30:	0167d79b          	srliw	a5,a5,0x16
    83000e34:	00f36333          	or	t1,t1,a5
    83000e38:	ab942ab7          	lui	s5,0xab942
    83000e3c:	006e033b          	addw	t1,t3,t1
    83000e40:	fff84793          	not	a5,a6
    83000e44:	3a7a8a9b          	addiw	s5,s5,935 # ffffffffab9423a7 <__BSS_END__+0xffffffff28937727>
    83000e48:	015a0a3b          	addw	s4,s4,s5
    83000e4c:	0067e7b3          	or	a5,a5,t1
    83000e50:	011a0a3b          	addw	s4,s4,a7
    83000e54:	01c7c7b3          	xor	a5,a5,t3
    83000e58:	014787bb          	addw	a5,a5,s4
    83000e5c:	00f7989b          	slliw	a7,a5,0xf
    83000e60:	0117d79b          	srliw	a5,a5,0x11
    83000e64:	00f8e8b3          	or	a7,a7,a5
    83000e68:	fc93aa37          	lui	s4,0xfc93a
    83000e6c:	011308bb          	addw	a7,t1,a7
    83000e70:	fffe4793          	not	a5,t3
    83000e74:	039a0a1b          	addiw	s4,s4,57 # fffffffffc93a039 <__BSS_END__+0xffffffff7992f3b9>
    83000e78:	014989bb          	addw	s3,s3,s4
    83000e7c:	0117e7b3          	or	a5,a5,a7
    83000e80:	010989bb          	addw	s3,s3,a6
    83000e84:	0067c7b3          	xor	a5,a5,t1
    83000e88:	013787bb          	addw	a5,a5,s3
    83000e8c:	00b7d81b          	srliw	a6,a5,0xb
    83000e90:	0157979b          	slliw	a5,a5,0x15
    83000e94:	00f86833          	or	a6,a6,a5
    83000e98:	655b69b7          	lui	s3,0x655b6
    83000e9c:	0108883b          	addw	a6,a7,a6
    83000ea0:	fff34793          	not	a5,t1
    83000ea4:	9c39899b          	addiw	s3,s3,-1597 # 655b59c3 <main-0x1da4a75d>
    83000ea8:	0139093b          	addw	s2,s2,s3
    83000eac:	0107e7b3          	or	a5,a5,a6
    83000eb0:	01c9093b          	addw	s2,s2,t3
    83000eb4:	0117c7b3          	xor	a5,a5,a7
    83000eb8:	012787bb          	addw	a5,a5,s2
    83000ebc:	00679e1b          	slliw	t3,a5,0x6
    83000ec0:	01a7d79b          	srliw	a5,a5,0x1a
    83000ec4:	00fe6e33          	or	t3,t3,a5
    83000ec8:	8f0cd937          	lui	s2,0x8f0cd
    83000ecc:	01c80e3b          	addw	t3,a6,t3
    83000ed0:	fff8c793          	not	a5,a7
    83000ed4:	c929091b          	addiw	s2,s2,-878 # ffffffff8f0ccc92 <__BSS_END__+0xffffffff0c0c2012>
    83000ed8:	012484bb          	addw	s1,s1,s2
    83000edc:	01c7e7b3          	or	a5,a5,t3
    83000ee0:	006484bb          	addw	s1,s1,t1
    83000ee4:	0107c7b3          	xor	a5,a5,a6
    83000ee8:	009787bb          	addw	a5,a5,s1
    83000eec:	00a7931b          	slliw	t1,a5,0xa
    83000ef0:	0167d79b          	srliw	a5,a5,0x16
    83000ef4:	00f36333          	or	t1,t1,a5
    83000ef8:	ffeff4b7          	lui	s1,0xffeff
    83000efc:	006e033b          	addw	t1,t3,t1
    83000f00:	fff84793          	not	a5,a6
    83000f04:	47d4849b          	addiw	s1,s1,1149 # ffffffffffeff47d <__BSS_END__+0xffffffff7cef47fd>
    83000f08:	009383bb          	addw	t2,t2,s1
    83000f0c:	0067e7b3          	or	a5,a5,t1
    83000f10:	011383bb          	addw	t2,t2,a7
    83000f14:	01c7c7b3          	xor	a5,a5,t3
    83000f18:	007787bb          	addw	a5,a5,t2
    83000f1c:	00f7989b          	slliw	a7,a5,0xf
    83000f20:	0117d79b          	srliw	a5,a5,0x11
    83000f24:	00f8e8b3          	or	a7,a7,a5
    83000f28:	858463b7          	lui	t2,0x85846
    83000f2c:	011308bb          	addw	a7,t1,a7
    83000f30:	fffe4793          	not	a5,t3
    83000f34:	dd13839b          	addiw	t2,t2,-559 # ffffffff85845dd1 <__BSS_END__+0xffffffff0283b151>
    83000f38:	0117e7b3          	or	a5,a5,a7
    83000f3c:	007282bb          	addw	t0,t0,t2
    83000f40:	010282bb          	addw	t0,t0,a6
    83000f44:	0067c7b3          	xor	a5,a5,t1
    83000f48:	005787bb          	addw	a5,a5,t0
    83000f4c:	00b7d81b          	srliw	a6,a5,0xb
    83000f50:	0157979b          	slliw	a5,a5,0x15
    83000f54:	00f86833          	or	a6,a6,a5
    83000f58:	6fa882b7          	lui	t0,0x6fa88
    83000f5c:	0108883b          	addw	a6,a7,a6
    83000f60:	fff34793          	not	a5,t1
    83000f64:	e4f2829b          	addiw	t0,t0,-433 # 6fa87e4f <main-0x135782d1>
    83000f68:	0107e7b3          	or	a5,a5,a6
    83000f6c:	005f8fbb          	addw	t6,t6,t0
    83000f70:	01cf8fbb          	addw	t6,t6,t3
    83000f74:	0117c7b3          	xor	a5,a5,a7
    83000f78:	01f787bb          	addw	a5,a5,t6
    83000f7c:	00679e1b          	slliw	t3,a5,0x6
    83000f80:	01a7d79b          	srliw	a5,a5,0x1a
    83000f84:	00fe6e33          	or	t3,t3,a5
    83000f88:	fe2cefb7          	lui	t6,0xfe2ce
    83000f8c:	01c80e3b          	addw	t3,a6,t3
    83000f90:	fff8c793          	not	a5,a7
    83000f94:	6e0f8f9b          	addiw	t6,t6,1760 # fffffffffe2ce6e0 <__BSS_END__+0xffffffff7b2c3a60>
    83000f98:	01c7e7b3          	or	a5,a5,t3
    83000f9c:	01ff0f3b          	addw	t5,t5,t6
    83000fa0:	006f0f3b          	addw	t5,t5,t1
    83000fa4:	0107c7b3          	xor	a5,a5,a6
    83000fa8:	01e787bb          	addw	a5,a5,t5
    83000fac:	00a7931b          	slliw	t1,a5,0xa
    83000fb0:	0167d79b          	srliw	a5,a5,0x16
    83000fb4:	00f36333          	or	t1,t1,a5
    83000fb8:	a3014f37          	lui	t5,0xa3014
    83000fbc:	006e033b          	addw	t1,t3,t1
    83000fc0:	fff84793          	not	a5,a6
    83000fc4:	314f0f1b          	addiw	t5,t5,788 # ffffffffa3014314 <__BSS_END__+0xffffffff20009694>
    83000fc8:	0067e7b3          	or	a5,a5,t1
    83000fcc:	01ee8ebb          	addw	t4,t4,t5
    83000fd0:	011e8ebb          	addw	t4,t4,a7
    83000fd4:	01c7c7b3          	xor	a5,a5,t3
    83000fd8:	01d787bb          	addw	a5,a5,t4
    83000fdc:	00f7989b          	slliw	a7,a5,0xf
    83000fe0:	0117d79b          	srliw	a5,a5,0x11
    83000fe4:	00f8e8b3          	or	a7,a7,a5
    83000fe8:	4e081eb7          	lui	t4,0x4e081
    83000fec:	011308bb          	addw	a7,t1,a7
    83000ff0:	fffe4793          	not	a5,t3
    83000ff4:	1a1e8e9b          	addiw	t4,t4,417 # 4e0811a1 <main-0x34f7ef7f>
    83000ff8:	0117e7b3          	or	a5,a5,a7
    83000ffc:	01d7073b          	addw	a4,a4,t4
    83001000:	0107073b          	addw	a4,a4,a6
    83001004:	0067c7b3          	xor	a5,a5,t1
    83001008:	00e787bb          	addw	a5,a5,a4
    8300100c:	00b7d81b          	srliw	a6,a5,0xb
    83001010:	0157979b          	slliw	a5,a5,0x15
    83001014:	00f86833          	or	a6,a6,a5
    83001018:	f75387b7          	lui	a5,0xf7538
    8300101c:	0108883b          	addw	a6,a7,a6
    83001020:	fff34713          	not	a4,t1
    83001024:	e827879b          	addiw	a5,a5,-382 # fffffffff7537e82 <__BSS_END__+0xffffffff7452d202>
    83001028:	00f686bb          	addw	a3,a3,a5
    8300102c:	01076733          	or	a4,a4,a6
    83001030:	01c686bb          	addw	a3,a3,t3
    83001034:	01174733          	xor	a4,a4,a7
    83001038:	00d7073b          	addw	a4,a4,a3
    8300103c:	0067179b          	slliw	a5,a4,0x6
    83001040:	01a7571b          	srliw	a4,a4,0x1a
    83001044:	00e7e7b3          	or	a5,a5,a4
    83001048:	bd3af737          	lui	a4,0xbd3af
    8300104c:	00f807bb          	addw	a5,a6,a5
    83001050:	fff8c693          	not	a3,a7
    83001054:	2357071b          	addiw	a4,a4,565 # ffffffffbd3af235 <__BSS_END__+0xffffffff3a3a45b5>
    83001058:	00e5053b          	addw	a0,a0,a4
    8300105c:	00f6e6b3          	or	a3,a3,a5
    83001060:	0065053b          	addw	a0,a0,t1
    83001064:	0106c6b3          	xor	a3,a3,a6
    83001068:	00a686bb          	addw	a3,a3,a0
    8300106c:	00a6971b          	slliw	a4,a3,0xa
    83001070:	0166d69b          	srliw	a3,a3,0x16
    83001074:	00d76733          	or	a4,a4,a3
    83001078:	2ad7d537          	lui	a0,0x2ad7d
    8300107c:	00e7873b          	addw	a4,a5,a4
    83001080:	fff84693          	not	a3,a6
    83001084:	2bb5051b          	addiw	a0,a0,699 # 2ad7d2bb <main-0x58282e65>
    83001088:	00a585bb          	addw	a1,a1,a0
    8300108c:	00e6e6b3          	or	a3,a3,a4
    83001090:	011585bb          	addw	a1,a1,a7
    83001094:	00f6c6b3          	xor	a3,a3,a5
    83001098:	00b686bb          	addw	a3,a3,a1
    8300109c:	00f6959b          	slliw	a1,a3,0xf
    830010a0:	0116d69b          	srliw	a3,a3,0x11
    830010a4:	00d5e5b3          	or	a1,a1,a3
    830010a8:	eb86d537          	lui	a0,0xeb86d
    830010ac:	00b705bb          	addw	a1,a4,a1
    830010b0:	fff7c693          	not	a3,a5
    830010b4:	3915051b          	addiw	a0,a0,913 # ffffffffeb86d391 <__BSS_END__+0xffffffff68862711>
    830010b8:	00a6063b          	addw	a2,a2,a0
    830010bc:	00b6e6b3          	or	a3,a3,a1
    830010c0:	00442503          	lw	a0,4(s0)
    830010c4:	0106063b          	addw	a2,a2,a6
    830010c8:	00e6c6b3          	xor	a3,a3,a4
    830010cc:	00042e03          	lw	t3,0(s0)
    830010d0:	00842303          	lw	t1,8(s0)
    830010d4:	00c42883          	lw	a7,12(s0)
    830010d8:	00c686bb          	addw	a3,a3,a2
    830010dc:	00b6d81b          	srliw	a6,a3,0xb
    830010e0:	0156969b          	slliw	a3,a3,0x15
    830010e4:	00a5863b          	addw	a2,a1,a0
    830010e8:	00d866b3          	or	a3,a6,a3
    830010ec:	01c787bb          	addw	a5,a5,t3
    830010f0:	00d606bb          	addw	a3,a2,a3
    830010f4:	006585bb          	addw	a1,a1,t1
    830010f8:	0117073b          	addw	a4,a4,a7
    830010fc:	14813083          	ld	ra,328(sp)
    83001100:	00f42023          	sw	a5,0(s0)
    83001104:	00d42223          	sw	a3,4(s0)
    83001108:	00b42423          	sw	a1,8(s0)
    8300110c:	00e42623          	sw	a4,12(s0)
    83001110:	14013403          	ld	s0,320(sp)
    83001114:	13813483          	ld	s1,312(sp)
    83001118:	13013903          	ld	s2,304(sp)
    8300111c:	12813983          	ld	s3,296(sp)
    83001120:	12013a03          	ld	s4,288(sp)
    83001124:	11813a83          	ld	s5,280(sp)
    83001128:	11013b03          	ld	s6,272(sp)
    8300112c:	10813b83          	ld	s7,264(sp)
    83001130:	10013c03          	ld	s8,256(sp)
    83001134:	15010113          	addi	sp,sp,336
    83001138:	00008067          	ret

000000008300113c <_Z9MD5UpdateP7MD5_CTXPhj>:
    8300113c:	00052783          	lw	a5,0(a0)
    83001140:	fc010113          	addi	sp,sp,-64
    83001144:	01413823          	sd	s4,16(sp)
    83001148:	0036171b          	slliw	a4,a2,0x3
    8300114c:	0037da1b          	srliw	s4,a5,0x3
    83001150:	02913423          	sd	s1,40(sp)
    83001154:	03213023          	sd	s2,32(sp)
    83001158:	01313c23          	sd	s3,24(sp)
    8300115c:	00050913          	mv	s2,a0
    83001160:	02113c23          	sd	ra,56(sp)
    83001164:	02813823          	sd	s0,48(sp)
    83001168:	01513423          	sd	s5,8(sp)
    8300116c:	01613023          	sd	s6,0(sp)
    83001170:	00060493          	mv	s1,a2
    83001174:	00e7853b          	addw	a0,a5,a4
    83001178:	03fa7a13          	andi	s4,s4,63
    8300117c:	04000613          	li	a2,64
    83001180:	4146063b          	subw	a2,a2,s4
    83001184:	00a92023          	sw	a0,0(s2)
    83001188:	00058993          	mv	s3,a1
    8300118c:	00492683          	lw	a3,4(s2)
    83001190:	0006059b          	sext.w	a1,a2
    83001194:	00e57463          	bgeu	a0,a4,8300119c <_Z9MD5UpdateP7MD5_CTXPhj+0x60>
    83001198:	0016869b          	addiw	a3,a3,1
    8300119c:	01d4d79b          	srliw	a5,s1,0x1d
    830011a0:	00d787bb          	addw	a5,a5,a3
    830011a4:	00f92223          	sw	a5,4(s2)
    830011a8:	018a0513          	addi	a0,s4,24
    830011ac:	04b4f063          	bgeu	s1,a1,830011ec <_Z9MD5UpdateP7MD5_CTXPhj+0xb0>
    830011b0:	03013403          	ld	s0,48(sp)
    830011b4:	03813083          	ld	ra,56(sp)
    830011b8:	01013a03          	ld	s4,16(sp)
    830011bc:	00813a83          	ld	s5,8(sp)
    830011c0:	00013b03          	ld	s6,0(sp)
    830011c4:	02049613          	slli	a2,s1,0x20
    830011c8:	00098593          	mv	a1,s3
    830011cc:	02813483          	ld	s1,40(sp)
    830011d0:	01813983          	ld	s3,24(sp)
    830011d4:	00a90533          	add	a0,s2,a0
    830011d8:	02013903          	ld	s2,32(sp)
    830011dc:	02065613          	srli	a2,a2,0x20
    830011e0:	04010113          	addi	sp,sp,64
    830011e4:	00001317          	auipc	t1,0x1
    830011e8:	14830067          	jr	328(t1) # 8300232c <memcpy>
    830011ec:	02061a93          	slli	s5,a2,0x20
    830011f0:	020ada93          	srli	s5,s5,0x20
    830011f4:	000a8613          	mv	a2,s5
    830011f8:	00098593          	mv	a1,s3
    830011fc:	00a90533          	add	a0,s2,a0
    83001200:	00001097          	auipc	ra,0x1
    83001204:	12c080e7          	jalr	300(ra) # 8300232c <memcpy>
    83001208:	00890b13          	addi	s6,s2,8
    8300120c:	08000413          	li	s0,128
    83001210:	01890593          	addi	a1,s2,24
    83001214:	000b0513          	mv	a0,s6
    83001218:	4144043b          	subw	s0,s0,s4
    8300121c:	fffff097          	auipc	ra,0xfffff
    83001220:	270080e7          	jalr	624(ra) # 8300048c <_Z12MD5TransformPjPh>
    83001224:	0484e263          	bltu	s1,s0,83001268 <_Z9MD5UpdateP7MD5_CTXPhj+0x12c>
    83001228:	fc04059b          	addiw	a1,s0,-64
    8300122c:	02059593          	slli	a1,a1,0x20
    83001230:	0205d593          	srli	a1,a1,0x20
    83001234:	00b985b3          	add	a1,s3,a1
    83001238:	000b0513          	mv	a0,s6
    8300123c:	fffff097          	auipc	ra,0xfffff
    83001240:	250080e7          	jalr	592(ra) # 8300048c <_Z12MD5TransformPjPh>
    83001244:	0004079b          	sext.w	a5,s0
    83001248:	0404041b          	addiw	s0,s0,64
    8300124c:	fc84fee3          	bgeu	s1,s0,83001228 <_Z9MD5UpdateP7MD5_CTXPhj+0xec>
    83001250:	02079713          	slli	a4,a5,0x20
    83001254:	02075713          	srli	a4,a4,0x20
    83001258:	00e989b3          	add	s3,s3,a4
    8300125c:	40f484bb          	subw	s1,s1,a5
    83001260:	01800513          	li	a0,24
    83001264:	f4dff06f          	j	830011b0 <_Z9MD5UpdateP7MD5_CTXPhj+0x74>
    83001268:	fc0a0a1b          	addiw	s4,s4,-64
    8300126c:	015989b3          	add	s3,s3,s5
    83001270:	009a04bb          	addw	s1,s4,s1
    83001274:	01800513          	li	a0,24
    83001278:	f39ff06f          	j	830011b0 <_Z9MD5UpdateP7MD5_CTXPhj+0x74>

000000008300127c <_Z8MD5FinalP7MD5_CTXPh>:
    8300127c:	00052783          	lw	a5,0(a0)
    83001280:	fd010113          	addi	sp,sp,-48
    83001284:	00913c23          	sd	s1,24(sp)
    83001288:	0037d79b          	srliw	a5,a5,0x3
    8300128c:	01213823          	sd	s2,16(sp)
    83001290:	02113423          	sd	ra,40(sp)
    83001294:	02813023          	sd	s0,32(sp)
    83001298:	03700713          	li	a4,55
    8300129c:	03f7f793          	andi	a5,a5,63
    830012a0:	00050493          	mv	s1,a0
    830012a4:	00058913          	mv	s2,a1
    830012a8:	06f76c63          	bltu	a4,a5,83001320 <_Z8MD5FinalP7MD5_CTXPh+0xa4>
    830012ac:	03800713          	li	a4,56
    830012b0:	40f7043b          	subw	s0,a4,a5
    830012b4:	00048593          	mv	a1,s1
    830012b8:	00810513          	addi	a0,sp,8
    830012bc:	00800613          	li	a2,8
    830012c0:	fffff097          	auipc	ra,0xfffff
    830012c4:	0b4080e7          	jalr	180(ra) # 83000374 <_Z9MD5EncodePhPjj>
    830012c8:	00040613          	mv	a2,s0
    830012cc:	00048513          	mv	a0,s1
    830012d0:	00008597          	auipc	a1,0x8
    830012d4:	36858593          	addi	a1,a1,872 # 83009638 <PADDING>
    830012d8:	00000097          	auipc	ra,0x0
    830012dc:	e64080e7          	jalr	-412(ra) # 8300113c <_Z9MD5UpdateP7MD5_CTXPhj>
    830012e0:	00810593          	addi	a1,sp,8
    830012e4:	00048513          	mv	a0,s1
    830012e8:	00800613          	li	a2,8
    830012ec:	00000097          	auipc	ra,0x0
    830012f0:	e50080e7          	jalr	-432(ra) # 8300113c <_Z9MD5UpdateP7MD5_CTXPhj>
    830012f4:	00848593          	addi	a1,s1,8
    830012f8:	00090513          	mv	a0,s2
    830012fc:	01000613          	li	a2,16
    83001300:	fffff097          	auipc	ra,0xfffff
    83001304:	074080e7          	jalr	116(ra) # 83000374 <_Z9MD5EncodePhPjj>
    83001308:	02813083          	ld	ra,40(sp)
    8300130c:	02013403          	ld	s0,32(sp)
    83001310:	01813483          	ld	s1,24(sp)
    83001314:	01013903          	ld	s2,16(sp)
    83001318:	03010113          	addi	sp,sp,48
    8300131c:	00008067          	ret
    83001320:	07800713          	li	a4,120
    83001324:	40f7043b          	subw	s0,a4,a5
    83001328:	f8dff06f          	j	830012b4 <_Z8MD5FinalP7MD5_CTXPh+0x38>

000000008300132c <_Z8InitGamev>:
    8300132c:	00009797          	auipc	a5,0x9
    83001330:	3c178793          	addi	a5,a5,961 # 8300a6ed <_ZL7players+0x5d>
    83001334:	00009717          	auipc	a4,0x9
    83001338:	77970713          	addi	a4,a4,1913 # 8300aaad <term+0x5d>
    8300133c:	00078023          	sb	zero,0(a5)
    83001340:	06078793          	addi	a5,a5,96
    83001344:	fee79ce3          	bne	a5,a4,8300133c <_Z8InitGamev+0x10>
    83001348:	00008067          	ret

000000008300134c <_Z11AllocPlayerv>:
    8300134c:	00009797          	auipc	a5,0x9
    83001350:	3a178793          	addi	a5,a5,929 # 8300a6ed <_ZL7players+0x5d>
    83001354:	00000713          	li	a4,0
    83001358:	00a00613          	li	a2,10
    8300135c:	0007c683          	lbu	a3,0(a5)
    83001360:	06078793          	addi	a5,a5,96
    83001364:	00068a63          	beqz	a3,83001378 <_Z11AllocPlayerv+0x2c>
    83001368:	0017071b          	addiw	a4,a4,1
    8300136c:	fec718e3          	bne	a4,a2,8300135c <_Z11AllocPlayerv+0x10>
    83001370:	00000513          	li	a0,0
    83001374:	00008067          	ret
    83001378:	00171793          	slli	a5,a4,0x1
    8300137c:	00e787b3          	add	a5,a5,a4
    83001380:	00579793          	slli	a5,a5,0x5
    83001384:	00009517          	auipc	a0,0x9
    83001388:	30c50513          	addi	a0,a0,780 # 8300a690 <_ZL7players>
    8300138c:	00f50533          	add	a0,a0,a5
    83001390:	00008067          	ret

0000000083001394 <_Z10FindPlayerPc>:
    83001394:	fd010113          	addi	sp,sp,-48
    83001398:	01213823          	sd	s2,16(sp)
    8300139c:	01413023          	sd	s4,0(sp)
    830013a0:	fd400913          	li	s2,-44
    830013a4:	00009a17          	auipc	s4,0x9
    830013a8:	2eca0a13          	addi	s4,s4,748 # 8300a690 <_ZL7players>
    830013ac:	02813023          	sd	s0,32(sp)
    830013b0:	00913c23          	sd	s1,24(sp)
    830013b4:	01313423          	sd	s3,8(sp)
    830013b8:	02113423          	sd	ra,40(sp)
    830013bc:	00050993          	mv	s3,a0
    830013c0:	00009417          	auipc	s0,0x9
    830013c4:	2fc40413          	addi	s0,s0,764 # 8300a6bc <_ZL7players+0x2c>
    830013c8:	00009497          	auipc	s1,0x9
    830013cc:	6b448493          	addi	s1,s1,1716 # 8300aa7c <term+0x2c>
    830013d0:	41490933          	sub	s2,s2,s4
    830013d4:	00c0006f          	j	830013e0 <_Z10FindPlayerPc+0x4c>
    830013d8:	06040413          	addi	s0,s0,96
    830013dc:	04940663          	beq	s0,s1,83001428 <_Z10FindPlayerPc+0x94>
    830013e0:	03144783          	lbu	a5,49(s0)
    830013e4:	fe078ae3          	beqz	a5,830013d8 <_Z10FindPlayerPc+0x44>
    830013e8:	00040593          	mv	a1,s0
    830013ec:	02000613          	li	a2,32
    830013f0:	00098513          	mv	a0,s3
    830013f4:	00001097          	auipc	ra,0x1
    830013f8:	02c080e7          	jalr	44(ra) # 83002420 <strncmp>
    830013fc:	008907b3          	add	a5,s2,s0
    83001400:	fc051ce3          	bnez	a0,830013d8 <_Z10FindPlayerPc+0x44>
    83001404:	02813083          	ld	ra,40(sp)
    83001408:	02013403          	ld	s0,32(sp)
    8300140c:	01813483          	ld	s1,24(sp)
    83001410:	01013903          	ld	s2,16(sp)
    83001414:	00813983          	ld	s3,8(sp)
    83001418:	00fa0533          	add	a0,s4,a5
    8300141c:	00013a03          	ld	s4,0(sp)
    83001420:	03010113          	addi	sp,sp,48
    83001424:	00008067          	ret
    83001428:	02813083          	ld	ra,40(sp)
    8300142c:	02013403          	ld	s0,32(sp)
    83001430:	01813483          	ld	s1,24(sp)
    83001434:	01013903          	ld	s2,16(sp)
    83001438:	00813983          	ld	s3,8(sp)
    8300143c:	00013a03          	ld	s4,0(sp)
    83001440:	00000513          	li	a0,0
    83001444:	03010113          	addi	sp,sp,48
    83001448:	00008067          	ret

000000008300144c <_Z18FillPlayerPropertyP6PlayerPcPh>:
    8300144c:	0a050463          	beqz	a0,830014f4 <_Z18FillPlayerPropertyP6PlayerPcPh+0xa8>
    83001450:	fe010113          	addi	sp,sp,-32
    83001454:	00813823          	sd	s0,16(sp)
    83001458:	00913423          	sd	s1,8(sp)
    8300145c:	00113c23          	sd	ra,24(sp)
    83001460:	00100793          	li	a5,1
    83001464:	00050413          	mv	s0,a0
    83001468:	00060493          	mv	s1,a2
    8300146c:	04f50ea3          	sb	a5,93(a0)
    83001470:	04f50f23          	sb	a5,94(a0)
    83001474:	02052223          	sw	zero,36(a0)
    83001478:	02000613          	li	a2,32
    8300147c:	02c50513          	addi	a0,a0,44
    83001480:	00001097          	auipc	ra,0x1
    83001484:	d5c080e7          	jalr	-676(ra) # 830021dc <strncpy>
    83001488:	0004c783          	lbu	a5,0(s1)
    8300148c:	00148693          	addi	a3,s1,1
    83001490:	00440713          	addi	a4,s0,4
    83001494:	0c87879b          	addiw	a5,a5,200
    83001498:	00f42023          	sw	a5,0(s0)
    8300149c:	02040613          	addi	a2,s0,32
    830014a0:	0006c783          	lbu	a5,0(a3)
    830014a4:	00470713          	addi	a4,a4,4
    830014a8:	00168693          	addi	a3,a3,1
    830014ac:	03f7f793          	andi	a5,a5,63
    830014b0:	0237879b          	addiw	a5,a5,35
    830014b4:	fef72e23          	sw	a5,-4(a4)
    830014b8:	fec714e3          	bne	a4,a2,830014a0 <_Z18FillPlayerPropertyP6PlayerPcPh+0x54>
    830014bc:	00048593          	mv	a1,s1
    830014c0:	04d40513          	addi	a0,s0,77
    830014c4:	01000613          	li	a2,16
    830014c8:	00001097          	auipc	ra,0x1
    830014cc:	e64080e7          	jalr	-412(ra) # 8300232c <memcpy>
    830014d0:	00c42703          	lw	a4,12(s0)
    830014d4:	0c800793          	li	a5,200
    830014d8:	01813083          	ld	ra,24(sp)
    830014dc:	40e787bb          	subw	a5,a5,a4
    830014e0:	02f42023          	sw	a5,32(s0)
    830014e4:	01013403          	ld	s0,16(sp)
    830014e8:	00813483          	ld	s1,8(sp)
    830014ec:	02010113          	addi	sp,sp,32
    830014f0:	00008067          	ret
    830014f4:	00008067          	ret

00000000830014f8 <_Z20DeletePlayerPropertyP6Player>:
    830014f8:	00050463          	beqz	a0,83001500 <_Z20DeletePlayerPropertyP6Player+0x8>
    830014fc:	04050ea3          	sb	zero,93(a0)
    83001500:	00008067          	ret

0000000083001504 <_Z18PrintAllPlayerNamev>:
    83001504:	fe010113          	addi	sp,sp,-32
    83001508:	00813823          	sd	s0,16(sp)
    8300150c:	00913423          	sd	s1,8(sp)
    83001510:	01213023          	sd	s2,0(sp)
    83001514:	00113c23          	sd	ra,24(sp)
    83001518:	00009417          	auipc	s0,0x9
    8300151c:	1a440413          	addi	s0,s0,420 # 8300a6bc <_ZL7players+0x2c>
    83001520:	00009497          	auipc	s1,0x9
    83001524:	55c48493          	addi	s1,s1,1372 # 8300aa7c <term+0x2c>
    83001528:	00007917          	auipc	s2,0x7
    8300152c:	90890913          	addi	s2,s2,-1784 # 83007e30 <_getpid_r+0xc>
    83001530:	00c0006f          	j	8300153c <_Z18PrintAllPlayerNamev+0x38>
    83001534:	06040413          	addi	s0,s0,96
    83001538:	02940263          	beq	s0,s1,8300155c <_Z18PrintAllPlayerNamev+0x58>
    8300153c:	03144783          	lbu	a5,49(s0)
    83001540:	fe078ae3          	beqz	a5,83001534 <_Z18PrintAllPlayerNamev+0x30>
    83001544:	00040593          	mv	a1,s0
    83001548:	00090513          	mv	a0,s2
    8300154c:	06040413          	addi	s0,s0,96
    83001550:	00001097          	auipc	ra,0x1
    83001554:	ff8080e7          	jalr	-8(ra) # 83002548 <printf>
    83001558:	fe9412e3          	bne	s0,s1,8300153c <_Z18PrintAllPlayerNamev+0x38>
    8300155c:	01813083          	ld	ra,24(sp)
    83001560:	01013403          	ld	s0,16(sp)
    83001564:	00813483          	ld	s1,8(sp)
    83001568:	00013903          	ld	s2,0(sp)
    8300156c:	02010113          	addi	sp,sp,32
    83001570:	00008067          	ret

0000000083001574 <_Z15PrintPlayerInfoP6Player>:
    83001574:	fd010113          	addi	sp,sp,-48
    83001578:	02813023          	sd	s0,32(sp)
    8300157c:	00913c23          	sd	s1,24(sp)
    83001580:	01213823          	sd	s2,16(sp)
    83001584:	01313423          	sd	s3,8(sp)
    83001588:	02113423          	sd	ra,40(sp)
    8300158c:	01413023          	sd	s4,0(sp)
    83001590:	00050493          	mv	s1,a0
    83001594:	00009417          	auipc	s0,0x9
    83001598:	12840413          	addi	s0,s0,296 # 8300a6bc <_ZL7players+0x2c>
    8300159c:	00009917          	auipc	s2,0x9
    830015a0:	4e090913          	addi	s2,s2,1248 # 8300aa7c <term+0x2c>
    830015a4:	00000993          	li	s3,0
    830015a8:	00c0006f          	j	830015b4 <_Z15PrintPlayerInfoP6Player+0x40>
    830015ac:	06040413          	addi	s0,s0,96
    830015b0:	03240863          	beq	s0,s2,830015e0 <_Z15PrintPlayerInfoP6Player+0x6c>
    830015b4:	03144783          	lbu	a5,49(s0)
    830015b8:	fe078ae3          	beqz	a5,830015ac <_Z15PrintPlayerInfoP6Player+0x38>
    830015bc:	00040513          	mv	a0,s0
    830015c0:	00001097          	auipc	ra,0x1
    830015c4:	b94080e7          	jalr	-1132(ra) # 83002154 <strlen>
    830015c8:	0005079b          	sext.w	a5,a0
    830015cc:	0137d463          	bge	a5,s3,830015d4 <_Z15PrintPlayerInfoP6Player+0x60>
    830015d0:	00098513          	mv	a0,s3
    830015d4:	06040413          	addi	s0,s0,96
    830015d8:	0005099b          	sext.w	s3,a0
    830015dc:	fd241ce3          	bne	s0,s2,830015b4 <_Z15PrintPlayerInfoP6Player+0x40>
    830015e0:	00009917          	auipc	s2,0x9
    830015e4:	06090913          	addi	s2,s2,96 # 8300a640 <_impure_ptr>
    830015e8:	00093783          	ld	a5,0(s2)
    830015ec:	00098613          	mv	a2,s3
    830015f0:	02c48693          	addi	a3,s1,44
    830015f4:	0187b503          	ld	a0,24(a5)
    830015f8:	00007597          	auipc	a1,0x7
    830015fc:	84858593          	addi	a1,a1,-1976 # 83007e40 <_getpid_r+0x1c>
    83001600:	00007417          	auipc	s0,0x7
    83001604:	98840413          	addi	s0,s0,-1656 # 83007f88 <_ZL11propertyArr>
    83001608:	00002097          	auipc	ra,0x2
    8300160c:	704080e7          	jalr	1796(ra) # 83003d0c <fprintf>
    83001610:	00007a17          	auipc	s4,0x7
    83001614:	9b8a0a13          	addi	s4,s4,-1608 # 83007fc8 <_ZL11propertyArr+0x40>
    83001618:	00007617          	auipc	a2,0x7
    8300161c:	82060613          	addi	a2,a2,-2016 # 83007e38 <_getpid_r+0x14>
    83001620:	00007997          	auipc	s3,0x7
    83001624:	82898993          	addi	s3,s3,-2008 # 83007e48 <_getpid_r+0x24>
    83001628:	0080006f          	j	83001630 <_Z15PrintPlayerInfoP6Player+0xbc>
    8300162c:	00043603          	ld	a2,0(s0)
    83001630:	00093783          	ld	a5,0(s2)
    83001634:	0004a683          	lw	a3,0(s1)
    83001638:	00098593          	mv	a1,s3
    8300163c:	0187b503          	ld	a0,24(a5)
    83001640:	00840413          	addi	s0,s0,8
    83001644:	00448493          	addi	s1,s1,4
    83001648:	00002097          	auipc	ra,0x2
    8300164c:	6c4080e7          	jalr	1732(ra) # 83003d0c <fprintf>
    83001650:	fd441ee3          	bne	s0,s4,8300162c <_Z15PrintPlayerInfoP6Player+0xb8>
    83001654:	00093783          	ld	a5,0(s2)
    83001658:	02013403          	ld	s0,32(sp)
    8300165c:	02813083          	ld	ra,40(sp)
    83001660:	01813483          	ld	s1,24(sp)
    83001664:	01013903          	ld	s2,16(sp)
    83001668:	00813983          	ld	s3,8(sp)
    8300166c:	00013a03          	ld	s4,0(sp)
    83001670:	0187b503          	ld	a0,24(a5)
    83001674:	00006597          	auipc	a1,0x6
    83001678:	7dc58593          	addi	a1,a1,2012 # 83007e50 <_getpid_r+0x2c>
    8300167c:	03010113          	addi	sp,sp,48
    83001680:	00002317          	auipc	t1,0x2
    83001684:	68c30067          	jr	1676(t1) # 83003d0c <fprintf>

0000000083001688 <_Z18PrintAllPlayerInfov>:
    83001688:	fe010113          	addi	sp,sp,-32
    8300168c:	00813823          	sd	s0,16(sp)
    83001690:	00913423          	sd	s1,8(sp)
    83001694:	00113c23          	sd	ra,24(sp)
    83001698:	00009417          	auipc	s0,0x9
    8300169c:	ff840413          	addi	s0,s0,-8 # 8300a690 <_ZL7players>
    830016a0:	00009497          	auipc	s1,0x9
    830016a4:	3b048493          	addi	s1,s1,944 # 8300aa50 <term>
    830016a8:	00c0006f          	j	830016b4 <_Z18PrintAllPlayerInfov+0x2c>
    830016ac:	06040413          	addi	s0,s0,96
    830016b0:	02940063          	beq	s0,s1,830016d0 <_Z18PrintAllPlayerInfov+0x48>
    830016b4:	05d44783          	lbu	a5,93(s0)
    830016b8:	fe078ae3          	beqz	a5,830016ac <_Z18PrintAllPlayerInfov+0x24>
    830016bc:	00040513          	mv	a0,s0
    830016c0:	06040413          	addi	s0,s0,96
    830016c4:	00000097          	auipc	ra,0x0
    830016c8:	eb0080e7          	jalr	-336(ra) # 83001574 <_Z15PrintPlayerInfoP6Player>
    830016cc:	fe9414e3          	bne	s0,s1,830016b4 <_Z18PrintAllPlayerInfov+0x2c>
    830016d0:	01813083          	ld	ra,24(sp)
    830016d4:	01013403          	ld	s0,16(sp)
    830016d8:	00813483          	ld	s1,8(sp)
    830016dc:	02010113          	addi	sp,sp,32
    830016e0:	00008067          	ret

00000000830016e4 <_Z10CountAlivev>:
    830016e4:	00009797          	auipc	a5,0x9
    830016e8:	00978793          	addi	a5,a5,9 # 8300a6ed <_ZL7players+0x5d>
    830016ec:	00009697          	auipc	a3,0x9
    830016f0:	3c168693          	addi	a3,a3,961 # 8300aaad <term+0x5d>
    830016f4:	00000513          	li	a0,0
    830016f8:	0017c703          	lbu	a4,1(a5)
    830016fc:	00070863          	beqz	a4,8300170c <_Z10CountAlivev+0x28>
    83001700:	0007c703          	lbu	a4,0(a5)
    83001704:	00070463          	beqz	a4,8300170c <_Z10CountAlivev+0x28>
    83001708:	0015051b          	addiw	a0,a0,1
    8300170c:	06078793          	addi	a5,a5,96
    83001710:	fed794e3          	bne	a5,a3,830016f8 <_Z10CountAlivev+0x14>
    83001714:	00008067          	ret

0000000083001718 <_Z9StartGamev>:
    83001718:	fa010113          	addi	sp,sp,-96
    8300171c:	03413823          	sd	s4,48(sp)
    83001720:	03613023          	sd	s6,32(sp)
    83001724:	01713c23          	sd	s7,24(sp)
    83001728:	01813823          	sd	s8,16(sp)
    8300172c:	01913423          	sd	s9,8(sp)
    83001730:	04113c23          	sd	ra,88(sp)
    83001734:	04813823          	sd	s0,80(sp)
    83001738:	04913423          	sd	s1,72(sp)
    8300173c:	05213023          	sd	s2,64(sp)
    83001740:	03313c23          	sd	s3,56(sp)
    83001744:	03513423          	sd	s5,40(sp)
    83001748:	01a13023          	sd	s10,0(sp)
    8300174c:	00009c17          	auipc	s8,0x9
    83001750:	f44c0c13          	addi	s8,s8,-188 # 8300a690 <_ZL7players>
    83001754:	00009b97          	auipc	s7,0x9
    83001758:	359b8b93          	addi	s7,s7,857 # 8300aaad <term+0x5d>
    8300175c:	00100a13          	li	s4,1
    83001760:	00a00b13          	li	s6,10
    83001764:	00009c97          	auipc	s9,0x9
    83001768:	2ecc8c93          	addi	s9,s9,748 # 8300aa50 <term>
    8300176c:	00009717          	auipc	a4,0x9
    83001770:	f8170713          	addi	a4,a4,-127 # 8300a6ed <_ZL7players+0x5d>
    83001774:	00009417          	auipc	s0,0x9
    83001778:	f1c40413          	addi	s0,s0,-228 # 8300a690 <_ZL7players>
    8300177c:	00070793          	mv	a5,a4
    83001780:	00000613          	li	a2,0
    83001784:	0017c683          	lbu	a3,1(a5)
    83001788:	00068863          	beqz	a3,83001798 <_Z9StartGamev+0x80>
    8300178c:	0007c683          	lbu	a3,0(a5)
    83001790:	00068463          	beqz	a3,83001798 <_Z9StartGamev+0x80>
    83001794:	0016061b          	addiw	a2,a2,1
    83001798:	06078793          	addi	a5,a5,96
    8300179c:	ff7794e3          	bne	a5,s7,83001784 <_Z9StartGamev+0x6c>
    830017a0:	27460e63          	beq	a2,s4,83001a1c <_Z9StartGamev+0x304>
    830017a4:	00000913          	li	s2,0
    830017a8:	00174783          	lbu	a5,1(a4)
    830017ac:	00078663          	beqz	a5,830017b8 <_Z9StartGamev+0xa0>
    830017b0:	00074783          	lbu	a5,0(a4)
    830017b4:	22079063          	bnez	a5,830019d4 <_Z9StartGamev+0x2bc>
    830017b8:	0019091b          	addiw	s2,s2,1
    830017bc:	06070713          	addi	a4,a4,96
    830017c0:	ff6914e3          	bne	s2,s6,830017a8 <_Z9StartGamev+0x90>
    830017c4:	fff00913          	li	s2,-1
    830017c8:	00000993          	li	s3,0
    830017cc:	00199493          	slli	s1,s3,0x1
    830017d0:	013484b3          	add	s1,s1,s3
    830017d4:	00549493          	slli	s1,s1,0x5
    830017d8:	04d48493          	addi	s1,s1,77
    830017dc:	009c04b3          	add	s1,s8,s1
    830017e0:	00191a93          	slli	s5,s2,0x1
    830017e4:	0140006f          	j	830017f8 <_Z9StartGamev+0xe0>
    830017e8:	20f68463          	beq	a3,a5,830019f0 <_Z9StartGamev+0x2d8>
    830017ec:	0019899b          	addiw	s3,s3,1
    830017f0:	06048493          	addi	s1,s1,96
    830017f4:	05698063          	beq	s3,s6,83001834 <_Z9StartGamev+0x11c>
    830017f8:	0114c783          	lbu	a5,17(s1)
    830017fc:	fe0788e3          	beqz	a5,830017ec <_Z9StartGamev+0xd4>
    83001800:	0104c783          	lbu	a5,16(s1)
    83001804:	012a85b3          	add	a1,s5,s2
    83001808:	00559593          	slli	a1,a1,0x5
    8300180c:	00bc0733          	add	a4,s8,a1
    83001810:	fc078ee3          	beqz	a5,830017ec <_Z9StartGamev+0xd4>
    83001814:	fd34a683          	lw	a3,-45(s1)
    83001818:	02072783          	lw	a5,32(a4)
    8300181c:	fcf6d6e3          	bge	a3,a5,830017e8 <_Z9StartGamev+0xd0>
    83001820:	00098913          	mv	s2,s3
    83001824:	00199a93          	slli	s5,s3,0x1
    83001828:	0019899b          	addiw	s3,s3,1
    8300182c:	06048493          	addi	s1,s1,96
    83001830:	fd6994e3          	bne	s3,s6,830017f8 <_Z9StartGamev+0xe0>
    83001834:	012a87b3          	add	a5,s5,s2
    83001838:	00579793          	slli	a5,a5,0x5
    8300183c:	02c78593          	addi	a1,a5,44
    83001840:	00fc07b3          	add	a5,s8,a5
    83001844:	00000493          	li	s1,0
    83001848:	00f40c63          	beq	s0,a5,83001860 <_Z9StartGamev+0x148>
    8300184c:	05e44703          	lbu	a4,94(s0)
    83001850:	00070863          	beqz	a4,83001860 <_Z9StartGamev+0x148>
    83001854:	05d44703          	lbu	a4,93(s0)
    83001858:	00070463          	beqz	a4,83001860 <_Z9StartGamev+0x148>
    8300185c:	00040493          	mv	s1,s0
    83001860:	06040413          	addi	s0,s0,96
    83001864:	ff9412e3          	bne	s0,s9,83001848 <_Z9StartGamev+0x130>
    83001868:	02c48993          	addi	s3,s1,44
    8300186c:	00098613          	mv	a2,s3
    83001870:	00bc05b3          	add	a1,s8,a1
    83001874:	00006517          	auipc	a0,0x6
    83001878:	5e450513          	addi	a0,a0,1508 # 83007e58 <_getpid_r+0x34>
    8300187c:	00001097          	auipc	ra,0x1
    83001880:	ccc080e7          	jalr	-820(ra) # 83002548 <printf>
    83001884:	012a8433          	add	s0,s5,s2
    83001888:	00003097          	auipc	ra,0x3
    8300188c:	404080e7          	jalr	1028(ra) # 83004c8c <rand>
    83001890:	00541413          	slli	s0,s0,0x5
    83001894:	008c0433          	add	s0,s8,s0
    83001898:	06400593          	li	a1,100
    8300189c:	00006097          	auipc	ra,0x6
    830018a0:	c80080e7          	jalr	-896(ra) # 8300751c <__moddi3>
    830018a4:	00442d03          	lw	s10,4(s0)
    830018a8:	01042703          	lw	a4,16(s0)
    830018ac:	0005051b          	sext.w	a0,a0
    830018b0:	403d579b          	sraiw	a5,s10,0x3
    830018b4:	00e787bb          	addw	a5,a5,a4
    830018b8:	0aa7ce63          	blt	a5,a0,83001974 <_Z9StartGamev+0x25c>
    830018bc:	012a8433          	add	s0,s5,s2
    830018c0:	00541413          	slli	s0,s0,0x5
    830018c4:	008c0433          	add	s0,s8,s0
    830018c8:	01442783          	lw	a5,20(s0)
    830018cc:	03a7c463          	blt	a5,s10,830018f4 <_Z9StartGamev+0x1dc>
    830018d0:	00003097          	auipc	ra,0x3
    830018d4:	3bc080e7          	jalr	956(ra) # 83004c8c <rand>
    830018d8:	06400593          	li	a1,100
    830018dc:	00006097          	auipc	ra,0x6
    830018e0:	c40080e7          	jalr	-960(ra) # 8300751c <__moddi3>
    830018e4:	01c42783          	lw	a5,28(s0)
    830018e8:	0005051b          	sext.w	a0,a0
    830018ec:	12f54463          	blt	a0,a5,83001a14 <_Z9StartGamev+0x2fc>
    830018f0:	00442d03          	lw	s10,4(s0)
    830018f4:	00003097          	auipc	ra,0x3
    830018f8:	398080e7          	jalr	920(ra) # 83004c8c <rand>
    830018fc:	00f57413          	andi	s0,a0,15
    83001900:	01a4043b          	addw	s0,s0,s10
    83001904:	ff84041b          	addiw	s0,s0,-8
    83001908:	00040613          	mv	a2,s0
    8300190c:	00098593          	mv	a1,s3
    83001910:	00006517          	auipc	a0,0x6
    83001914:	57850513          	addi	a0,a0,1400 # 83007e88 <_getpid_r+0x64>
    83001918:	00001097          	auipc	ra,0x1
    8300191c:	c30080e7          	jalr	-976(ra) # 83002548 <printf>
    83001920:	0004a783          	lw	a5,0(s1)
    83001924:	012a8d33          	add	s10,s5,s2
    83001928:	005d1d13          	slli	s10,s10,0x5
    8300192c:	408787bb          	subw	a5,a5,s0
    83001930:	00f4a023          	sw	a5,0(s1)
    83001934:	01ac0d33          	add	s10,s8,s10
    83001938:	028d2783          	lw	a5,40(s10)
    8300193c:	008787bb          	addw	a5,a5,s0
    83001940:	02fd2423          	sw	a5,40(s10)
    83001944:	0004a783          	lw	a5,0(s1)
    83001948:	06f05263          	blez	a5,830019ac <_Z9StartGamev+0x294>
    8300194c:	012a8ab3          	add	s5,s5,s2
    83001950:	005a9a93          	slli	s5,s5,0x5
    83001954:	015c0ab3          	add	s5,s8,s5
    83001958:	00caa683          	lw	a3,12(s5)
    8300195c:	020aa703          	lw	a4,32(s5)
    83001960:	0c800793          	li	a5,200
    83001964:	40d787bb          	subw	a5,a5,a3
    83001968:	00e787bb          	addw	a5,a5,a4
    8300196c:	02faa023          	sw	a5,32(s5)
    83001970:	dfdff06f          	j	8300176c <_Z9StartGamev+0x54>
    83001974:	00003097          	auipc	ra,0x3
    83001978:	318080e7          	jalr	792(ra) # 83004c8c <rand>
    8300197c:	06400593          	li	a1,100
    83001980:	00006097          	auipc	ra,0x6
    83001984:	b9c080e7          	jalr	-1124(ra) # 8300751c <__moddi3>
    83001988:	0104a783          	lw	a5,16(s1)
    8300198c:	0044a703          	lw	a4,4(s1)
    83001990:	0005051b          	sext.w	a0,a0
    83001994:	4027d79b          	sraiw	a5,a5,0x2
    83001998:	4047571b          	sraiw	a4,a4,0x4
    8300199c:	00e787bb          	addw	a5,a5,a4
    830019a0:	30f54063          	blt	a0,a5,83001ca0 <_Z9StartGamev+0x588>
    830019a4:	00442d03          	lw	s10,4(s0)
    830019a8:	f15ff06f          	j	830018bc <_Z9StartGamev+0x1a4>
    830019ac:	00098593          	mv	a1,s3
    830019b0:	00006517          	auipc	a0,0x6
    830019b4:	4f050513          	addi	a0,a0,1264 # 83007ea0 <_getpid_r+0x7c>
    830019b8:	00001097          	auipc	ra,0x1
    830019bc:	b90080e7          	jalr	-1136(ra) # 83002548 <printf>
    830019c0:	04048f23          	sb	zero,94(s1)
    830019c4:	024d2783          	lw	a5,36(s10)
    830019c8:	0017879b          	addiw	a5,a5,1
    830019cc:	02fd2223          	sw	a5,36(s10)
    830019d0:	f7dff06f          	j	8300194c <_Z9StartGamev+0x234>
    830019d4:	0019099b          	addiw	s3,s2,1
    830019d8:	df699ae3          	bne	s3,s6,830017cc <_Z9StartGamev+0xb4>
    830019dc:	38c00593          	li	a1,908
    830019e0:	36000793          	li	a5,864
    830019e4:	00900913          	li	s2,9
    830019e8:	01200a93          	li	s5,18
    830019ec:	e55ff06f          	j	83001840 <_Z9StartGamev+0x128>
    830019f0:	04d58593          	addi	a1,a1,77
    830019f4:	00048513          	mv	a0,s1
    830019f8:	00bc05b3          	add	a1,s8,a1
    830019fc:	00000097          	auipc	ra,0x0
    83001a00:	6ac080e7          	jalr	1708(ra) # 830020a8 <strcmp>
    83001a04:	de0554e3          	bgez	a0,830017ec <_Z9StartGamev+0xd4>
    83001a08:	00098913          	mv	s2,s3
    83001a0c:	00199a93          	slli	s5,s3,0x1
    83001a10:	e19ff06f          	j	83001828 <_Z9StartGamev+0x110>
    83001a14:	01442d03          	lw	s10,20(s0)
    83001a18:	eddff06f          	j	830018f4 <_Z9StartGamev+0x1dc>
    83001a1c:	00009417          	auipc	s0,0x9
    83001a20:	ca040413          	addi	s0,s0,-864 # 8300a6bc <_ZL7players+0x2c>
    83001a24:	00009997          	auipc	s3,0x9
    83001a28:	05898993          	addi	s3,s3,88 # 8300aa7c <term+0x2c>
    83001a2c:	00040493          	mv	s1,s0
    83001a30:	00000a13          	li	s4,0
    83001a34:	00c0006f          	j	83001a40 <_Z9StartGamev+0x328>
    83001a38:	06048493          	addi	s1,s1,96
    83001a3c:	03348863          	beq	s1,s3,83001a6c <_Z9StartGamev+0x354>
    83001a40:	0314c783          	lbu	a5,49(s1)
    83001a44:	fe078ae3          	beqz	a5,83001a38 <_Z9StartGamev+0x320>
    83001a48:	00048513          	mv	a0,s1
    83001a4c:	00000097          	auipc	ra,0x0
    83001a50:	708080e7          	jalr	1800(ra) # 83002154 <strlen>
    83001a54:	0005079b          	sext.w	a5,a0
    83001a58:	0147d463          	bge	a5,s4,83001a60 <_Z9StartGamev+0x348>
    83001a5c:	000a0513          	mv	a0,s4
    83001a60:	06048493          	addi	s1,s1,96
    83001a64:	00050a1b          	sext.w	s4,a0
    83001a68:	fd349ce3          	bne	s1,s3,83001a40 <_Z9StartGamev+0x328>
    83001a6c:	00800793          	li	a5,8
    83001a70:	000a091b          	sext.w	s2,s4
    83001a74:	00fa5463          	bge	s4,a5,83001a7c <_Z9StartGamev+0x364>
    83001a78:	00800913          	li	s2,8
    83001a7c:	00800493          	li	s1,8
    83001a80:	00006517          	auipc	a0,0x6
    83001a84:	43850513          	addi	a0,a0,1080 # 83007eb8 <_getpid_r+0x94>
    83001a88:	00001097          	auipc	ra,0x1
    83001a8c:	ac0080e7          	jalr	-1344(ra) # 83002548 <printf>
    83001a90:	0144dc63          	bge	s1,s4,83001aa8 <_Z9StartGamev+0x390>
    83001a94:	0014849b          	addiw	s1,s1,1
    83001a98:	02d00513          	li	a0,45
    83001a9c:	00002097          	auipc	ra,0x2
    83001aa0:	2cc080e7          	jalr	716(ra) # 83003d68 <putchar>
    83001aa4:	ff24c8e3          	blt	s1,s2,83001a94 <_Z9StartGamev+0x37c>
    83001aa8:	00006517          	auipc	a0,0x6
    83001aac:	42050513          	addi	a0,a0,1056 # 83007ec8 <_getpid_r+0xa4>
    83001ab0:	00001097          	auipc	ra,0x1
    83001ab4:	a98080e7          	jalr	-1384(ra) # 83002548 <printf>
    83001ab8:	00006817          	auipc	a6,0x6
    83001abc:	42880813          	addi	a6,a6,1064 # 83007ee0 <_getpid_r+0xbc>
    83001ac0:	00600793          	li	a5,6
    83001ac4:	00006717          	auipc	a4,0x6
    83001ac8:	42470713          	addi	a4,a4,1060 # 83007ee8 <_getpid_r+0xc4>
    83001acc:	00400693          	li	a3,4
    83001ad0:	00006617          	auipc	a2,0x6
    83001ad4:	42060613          	addi	a2,a2,1056 # 83007ef0 <_getpid_r+0xcc>
    83001ad8:	00090593          	mv	a1,s2
    83001adc:	00006517          	auipc	a0,0x6
    83001ae0:	41c50513          	addi	a0,a0,1052 # 83007ef8 <_getpid_r+0xd4>
    83001ae4:	00001097          	auipc	ra,0x1
    83001ae8:	a64080e7          	jalr	-1436(ra) # 83002548 <printf>
    83001aec:	00009497          	auipc	s1,0x9
    83001af0:	bd048493          	addi	s1,s1,-1072 # 8300a6bc <_ZL7players+0x2c>
    83001af4:	00006a97          	auipc	s5,0x6
    83001af8:	41ca8a93          	addi	s5,s5,1052 # 83007f10 <_getpid_r+0xec>
    83001afc:	00c0006f          	j	83001b08 <_Z9StartGamev+0x3f0>
    83001b00:	06048493          	addi	s1,s1,96
    83001b04:	05348063          	beq	s1,s3,83001b44 <_Z9StartGamev+0x42c>
    83001b08:	0314c783          	lbu	a5,49(s1)
    83001b0c:	fe078ae3          	beqz	a5,83001b00 <_Z9StartGamev+0x3e8>
    83001b10:	0324c783          	lbu	a5,50(s1)
    83001b14:	fe0786e3          	beqz	a5,83001b00 <_Z9StartGamev+0x3e8>
    83001b18:	ffc4a803          	lw	a6,-4(s1)
    83001b1c:	ff84a703          	lw	a4,-8(s1)
    83001b20:	00048613          	mv	a2,s1
    83001b24:	00600793          	li	a5,6
    83001b28:	00400693          	li	a3,4
    83001b2c:	00090593          	mv	a1,s2
    83001b30:	000a8513          	mv	a0,s5
    83001b34:	06048493          	addi	s1,s1,96
    83001b38:	00001097          	auipc	ra,0x1
    83001b3c:	a10080e7          	jalr	-1520(ra) # 83002548 <printf>
    83001b40:	fd3494e3          	bne	s1,s3,83001b08 <_Z9StartGamev+0x3f0>
    83001b44:	02b00513          	li	a0,43
    83001b48:	00002097          	auipc	ra,0x2
    83001b4c:	220080e7          	jalr	544(ra) # 83003d68 <putchar>
    83001b50:	fff00493          	li	s1,-1
    83001b54:	0014849b          	addiw	s1,s1,1
    83001b58:	02d00513          	li	a0,45
    83001b5c:	00002097          	auipc	ra,0x2
    83001b60:	20c080e7          	jalr	524(ra) # 83003d68 <putchar>
    83001b64:	fe9918e3          	bne	s2,s1,83001b54 <_Z9StartGamev+0x43c>
    83001b68:	00006517          	auipc	a0,0x6
    83001b6c:	3c050513          	addi	a0,a0,960 # 83007f28 <_getpid_r+0x104>
    83001b70:	00001097          	auipc	ra,0x1
    83001b74:	9d8080e7          	jalr	-1576(ra) # 83002548 <printf>
    83001b78:	00800493          	li	s1,8
    83001b7c:	00006517          	auipc	a0,0x6
    83001b80:	3c450513          	addi	a0,a0,964 # 83007f40 <_getpid_r+0x11c>
    83001b84:	00001097          	auipc	ra,0x1
    83001b88:	9c4080e7          	jalr	-1596(ra) # 83002548 <printf>
    83001b8c:	0144dc63          	bge	s1,s4,83001ba4 <_Z9StartGamev+0x48c>
    83001b90:	0014849b          	addiw	s1,s1,1
    83001b94:	02d00513          	li	a0,45
    83001b98:	00002097          	auipc	ra,0x2
    83001b9c:	1d0080e7          	jalr	464(ra) # 83003d68 <putchar>
    83001ba0:	ff24c8e3          	blt	s1,s2,83001b90 <_Z9StartGamev+0x478>
    83001ba4:	00006517          	auipc	a0,0x6
    83001ba8:	32450513          	addi	a0,a0,804 # 83007ec8 <_getpid_r+0xa4>
    83001bac:	00001097          	auipc	ra,0x1
    83001bb0:	99c080e7          	jalr	-1636(ra) # 83002548 <printf>
    83001bb4:	00006817          	auipc	a6,0x6
    83001bb8:	32c80813          	addi	a6,a6,812 # 83007ee0 <_getpid_r+0xbc>
    83001bbc:	00600793          	li	a5,6
    83001bc0:	00006717          	auipc	a4,0x6
    83001bc4:	32870713          	addi	a4,a4,808 # 83007ee8 <_getpid_r+0xc4>
    83001bc8:	00400693          	li	a3,4
    83001bcc:	00006617          	auipc	a2,0x6
    83001bd0:	32460613          	addi	a2,a2,804 # 83007ef0 <_getpid_r+0xcc>
    83001bd4:	00090593          	mv	a1,s2
    83001bd8:	00006517          	auipc	a0,0x6
    83001bdc:	32050513          	addi	a0,a0,800 # 83007ef8 <_getpid_r+0xd4>
    83001be0:	00001097          	auipc	ra,0x1
    83001be4:	968080e7          	jalr	-1688(ra) # 83002548 <printf>
    83001be8:	00006497          	auipc	s1,0x6
    83001bec:	32848493          	addi	s1,s1,808 # 83007f10 <_getpid_r+0xec>
    83001bf0:	00c0006f          	j	83001bfc <_Z9StartGamev+0x4e4>
    83001bf4:	06040413          	addi	s0,s0,96
    83001bf8:	05340063          	beq	s0,s3,83001c38 <_Z9StartGamev+0x520>
    83001bfc:	03144783          	lbu	a5,49(s0)
    83001c00:	fe078ae3          	beqz	a5,83001bf4 <_Z9StartGamev+0x4dc>
    83001c04:	03244783          	lbu	a5,50(s0)
    83001c08:	fe0796e3          	bnez	a5,83001bf4 <_Z9StartGamev+0x4dc>
    83001c0c:	ffc42803          	lw	a6,-4(s0)
    83001c10:	ff842703          	lw	a4,-8(s0)
    83001c14:	00040613          	mv	a2,s0
    83001c18:	00600793          	li	a5,6
    83001c1c:	00400693          	li	a3,4
    83001c20:	00090593          	mv	a1,s2
    83001c24:	00048513          	mv	a0,s1
    83001c28:	06040413          	addi	s0,s0,96
    83001c2c:	00001097          	auipc	ra,0x1
    83001c30:	91c080e7          	jalr	-1764(ra) # 83002548 <printf>
    83001c34:	fd3414e3          	bne	s0,s3,83001bfc <_Z9StartGamev+0x4e4>
    83001c38:	02b00513          	li	a0,43
    83001c3c:	00002097          	auipc	ra,0x2
    83001c40:	12c080e7          	jalr	300(ra) # 83003d68 <putchar>
    83001c44:	fff00413          	li	s0,-1
    83001c48:	0014041b          	addiw	s0,s0,1
    83001c4c:	02d00513          	li	a0,45
    83001c50:	00002097          	auipc	ra,0x2
    83001c54:	118080e7          	jalr	280(ra) # 83003d68 <putchar>
    83001c58:	fe8918e3          	bne	s2,s0,83001c48 <_Z9StartGamev+0x530>
    83001c5c:	05013403          	ld	s0,80(sp)
    83001c60:	05813083          	ld	ra,88(sp)
    83001c64:	04813483          	ld	s1,72(sp)
    83001c68:	04013903          	ld	s2,64(sp)
    83001c6c:	03813983          	ld	s3,56(sp)
    83001c70:	03013a03          	ld	s4,48(sp)
    83001c74:	02813a83          	ld	s5,40(sp)
    83001c78:	02013b03          	ld	s6,32(sp)
    83001c7c:	01813b83          	ld	s7,24(sp)
    83001c80:	01013c03          	ld	s8,16(sp)
    83001c84:	00813c83          	ld	s9,8(sp)
    83001c88:	00013d03          	ld	s10,0(sp)
    83001c8c:	00006517          	auipc	a0,0x6
    83001c90:	29c50513          	addi	a0,a0,668 # 83007f28 <_getpid_r+0x104>
    83001c94:	06010113          	addi	sp,sp,96
    83001c98:	00001317          	auipc	t1,0x1
    83001c9c:	8b030067          	jr	-1872(t1) # 83002548 <printf>
    83001ca0:	00098593          	mv	a1,s3
    83001ca4:	00006517          	auipc	a0,0x6
    83001ca8:	1cc50513          	addi	a0,a0,460 # 83007e70 <_getpid_r+0x4c>
    83001cac:	00001097          	auipc	ra,0x1
    83001cb0:	89c080e7          	jalr	-1892(ra) # 83002548 <printf>
    83001cb4:	c99ff06f          	j	8300194c <_Z9StartGamev+0x234>

0000000083001cb8 <_ZL8cmd_exitPc>:
    83001cb8:	fff00513          	li	a0,-1
    83001cbc:	00008067          	ret

0000000083001cc0 <_ZL8cmd_helpPc>:
    83001cc0:	fc010113          	addi	sp,sp,-64
    83001cc4:	00006597          	auipc	a1,0x6
    83001cc8:	34c58593          	addi	a1,a1,844 # 83008010 <_ZL11propertyArr+0x88>
    83001ccc:	00000513          	li	a0,0
    83001cd0:	02113c23          	sd	ra,56(sp)
    83001cd4:	02813823          	sd	s0,48(sp)
    83001cd8:	02913423          	sd	s1,40(sp)
    83001cdc:	03213023          	sd	s2,32(sp)
    83001ce0:	01313c23          	sd	s3,24(sp)
    83001ce4:	01413823          	sd	s4,16(sp)
    83001ce8:	01513423          	sd	s5,8(sp)
    83001cec:	00000097          	auipc	ra,0x0
    83001cf0:	598080e7          	jalr	1432(ra) # 83002284 <strtok>
    83001cf4:	0c050e63          	beqz	a0,83001dd0 <_ZL8cmd_helpPc+0x110>
    83001cf8:	00050913          	mv	s2,a0
    83001cfc:	00006997          	auipc	s3,0x6
    83001d00:	30c98993          	addi	s3,s3,780 # 83008008 <_ZL11propertyArr+0x80>
    83001d04:	00006a97          	auipc	s5,0x6
    83001d08:	454a8a93          	addi	s5,s5,1108 # 83008158 <_ZL9cmd_table>
    83001d0c:	00098593          	mv	a1,s3
    83001d10:	00090513          	mv	a0,s2
    83001d14:	000a8493          	mv	s1,s5
    83001d18:	00000413          	li	s0,0
    83001d1c:	00600a13          	li	s4,6
    83001d20:	00000097          	auipc	ra,0x0
    83001d24:	388080e7          	jalr	904(ra) # 830020a8 <strcmp>
    83001d28:	02050463          	beqz	a0,83001d50 <_ZL8cmd_helpPc+0x90>
    83001d2c:	0014041b          	addiw	s0,s0,1
    83001d30:	01848493          	addi	s1,s1,24
    83001d34:	05440a63          	beq	s0,s4,83001d88 <_ZL8cmd_helpPc+0xc8>
    83001d38:	0004b983          	ld	s3,0(s1)
    83001d3c:	00090513          	mv	a0,s2
    83001d40:	00098593          	mv	a1,s3
    83001d44:	00000097          	auipc	ra,0x0
    83001d48:	364080e7          	jalr	868(ra) # 830020a8 <strcmp>
    83001d4c:	fe0510e3          	bnez	a0,83001d2c <_ZL8cmd_helpPc+0x6c>
    83001d50:	00141793          	slli	a5,s0,0x1
    83001d54:	008787b3          	add	a5,a5,s0
    83001d58:	00379793          	slli	a5,a5,0x3
    83001d5c:	00fa8ab3          	add	s5,s5,a5
    83001d60:	00009797          	auipc	a5,0x9
    83001d64:	8e07b783          	ld	a5,-1824(a5) # 8300a640 <_impure_ptr>
    83001d68:	008ab683          	ld	a3,8(s5)
    83001d6c:	0187b503          	ld	a0,24(a5)
    83001d70:	00098613          	mv	a2,s3
    83001d74:	00006597          	auipc	a1,0x6
    83001d78:	2a458593          	addi	a1,a1,676 # 83008018 <_ZL11propertyArr+0x90>
    83001d7c:	00002097          	auipc	ra,0x2
    83001d80:	f90080e7          	jalr	-112(ra) # 83003d0c <fprintf>
    83001d84:	0240006f          	j	83001da8 <_ZL8cmd_helpPc+0xe8>
    83001d88:	00009797          	auipc	a5,0x9
    83001d8c:	8b87b783          	ld	a5,-1864(a5) # 8300a640 <_impure_ptr>
    83001d90:	0187b503          	ld	a0,24(a5)
    83001d94:	00090613          	mv	a2,s2
    83001d98:	00006597          	auipc	a1,0x6
    83001d9c:	29058593          	addi	a1,a1,656 # 83008028 <_ZL11propertyArr+0xa0>
    83001da0:	00002097          	auipc	ra,0x2
    83001da4:	f6c080e7          	jalr	-148(ra) # 83003d0c <fprintf>
    83001da8:	03813083          	ld	ra,56(sp)
    83001dac:	03013403          	ld	s0,48(sp)
    83001db0:	02813483          	ld	s1,40(sp)
    83001db4:	02013903          	ld	s2,32(sp)
    83001db8:	01813983          	ld	s3,24(sp)
    83001dbc:	01013a03          	ld	s4,16(sp)
    83001dc0:	00813a83          	ld	s5,8(sp)
    83001dc4:	00000513          	li	a0,0
    83001dc8:	04010113          	addi	sp,sp,64
    83001dcc:	00008067          	ret
    83001dd0:	00006417          	auipc	s0,0x6
    83001dd4:	38840413          	addi	s0,s0,904 # 83008158 <_ZL9cmd_table>
    83001dd8:	00006997          	auipc	s3,0x6
    83001ddc:	41098993          	addi	s3,s3,1040 # 830081e8 <_ZL9cmd_table+0x90>
    83001de0:	00006697          	auipc	a3,0x6
    83001de4:	1f068693          	addi	a3,a3,496 # 83007fd0 <_ZL11propertyArr+0x48>
    83001de8:	00006617          	auipc	a2,0x6
    83001dec:	22060613          	addi	a2,a2,544 # 83008008 <_ZL11propertyArr+0x80>
    83001df0:	00009917          	auipc	s2,0x9
    83001df4:	85090913          	addi	s2,s2,-1968 # 8300a640 <_impure_ptr>
    83001df8:	00006497          	auipc	s1,0x6
    83001dfc:	22048493          	addi	s1,s1,544 # 83008018 <_ZL11propertyArr+0x90>
    83001e00:	00c0006f          	j	83001e0c <_ZL8cmd_helpPc+0x14c>
    83001e04:	00043603          	ld	a2,0(s0)
    83001e08:	00843683          	ld	a3,8(s0)
    83001e0c:	00093783          	ld	a5,0(s2)
    83001e10:	01840413          	addi	s0,s0,24
    83001e14:	00048593          	mv	a1,s1
    83001e18:	0187b503          	ld	a0,24(a5)
    83001e1c:	00002097          	auipc	ra,0x2
    83001e20:	ef0080e7          	jalr	-272(ra) # 83003d0c <fprintf>
    83001e24:	ff3410e3          	bne	s0,s3,83001e04 <_ZL8cmd_helpPc+0x144>
    83001e28:	f81ff06f          	j	83001da8 <_ZL8cmd_helpPc+0xe8>

0000000083001e2c <_ZL9cmd_startPc>:
    83001e2c:	ff010113          	addi	sp,sp,-16
    83001e30:	00113423          	sd	ra,8(sp)
    83001e34:	00813023          	sd	s0,0(sp)
    83001e38:	00000097          	auipc	ra,0x0
    83001e3c:	8ac080e7          	jalr	-1876(ra) # 830016e4 <_Z10CountAlivev>
    83001e40:	00100793          	li	a5,1
    83001e44:	04a7de63          	bge	a5,a0,83001ea0 <_ZL9cmd_startPc+0x74>
    83001e48:	00000097          	auipc	ra,0x0
    83001e4c:	840080e7          	jalr	-1984(ra) # 83001688 <_Z18PrintAllPlayerInfov>
    83001e50:	00008797          	auipc	a5,0x8
    83001e54:	7f07b783          	ld	a5,2032(a5) # 8300a640 <_impure_ptr>
    83001e58:	0187b503          	ld	a0,24(a5)
    83001e5c:	00006597          	auipc	a1,0x6
    83001e60:	22c58593          	addi	a1,a1,556 # 83008088 <_ZL11propertyArr+0x100>
    83001e64:	00002097          	auipc	ra,0x2
    83001e68:	ea8080e7          	jalr	-344(ra) # 83003d0c <fprintf>
    83001e6c:	0001c537          	lui	a0,0x1c
    83001e70:	f5250513          	addi	a0,a0,-174 # 1bf52 <main-0x82fe41ce>
    83001e74:	00003097          	auipc	ra,0x3
    83001e78:	e00080e7          	jalr	-512(ra) # 83004c74 <srand>
    83001e7c:	00000097          	auipc	ra,0x0
    83001e80:	89c080e7          	jalr	-1892(ra) # 83001718 <_Z9StartGamev>
    83001e84:	fffff097          	auipc	ra,0xfffff
    83001e88:	4a8080e7          	jalr	1192(ra) # 8300132c <_Z8InitGamev>
    83001e8c:	00813083          	ld	ra,8(sp)
    83001e90:	00013403          	ld	s0,0(sp)
    83001e94:	00000513          	li	a0,0
    83001e98:	01010113          	addi	sp,sp,16
    83001e9c:	00008067          	ret
    83001ea0:	00008797          	auipc	a5,0x8
    83001ea4:	7a07b783          	ld	a5,1952(a5) # 8300a640 <_impure_ptr>
    83001ea8:	0187b403          	ld	s0,24(a5)
    83001eac:	00000097          	auipc	ra,0x0
    83001eb0:	838080e7          	jalr	-1992(ra) # 830016e4 <_Z10CountAlivev>
    83001eb4:	00050613          	mv	a2,a0
    83001eb8:	00006597          	auipc	a1,0x6
    83001ebc:	18858593          	addi	a1,a1,392 # 83008040 <_ZL11propertyArr+0xb8>
    83001ec0:	00040513          	mv	a0,s0
    83001ec4:	00002097          	auipc	ra,0x2
    83001ec8:	e48080e7          	jalr	-440(ra) # 83003d0c <fprintf>
    83001ecc:	fffff097          	auipc	ra,0xfffff
    83001ed0:	460080e7          	jalr	1120(ra) # 8300132c <_Z8InitGamev>
    83001ed4:	00813083          	ld	ra,8(sp)
    83001ed8:	00013403          	ld	s0,0(sp)
    83001edc:	00000513          	li	a0,0
    83001ee0:	01010113          	addi	sp,sp,16
    83001ee4:	00008067          	ret

0000000083001ee8 <_ZL6cmd_lsPc>:
    83001ee8:	ff010113          	addi	sp,sp,-16
    83001eec:	00113423          	sd	ra,8(sp)
    83001ef0:	fffff097          	auipc	ra,0xfffff
    83001ef4:	614080e7          	jalr	1556(ra) # 83001504 <_Z18PrintAllPlayerNamev>
    83001ef8:	00813083          	ld	ra,8(sp)
    83001efc:	00000513          	li	a0,0
    83001f00:	01010113          	addi	sp,sp,16
    83001f04:	00008067          	ret

0000000083001f08 <_ZL6cmd_rmPc>:
    83001f08:	ff010113          	addi	sp,sp,-16
    83001f0c:	00813023          	sd	s0,0(sp)
    83001f10:	00113423          	sd	ra,8(sp)
    83001f14:	fffff097          	auipc	ra,0xfffff
    83001f18:	480080e7          	jalr	1152(ra) # 83001394 <_Z10FindPlayerPc>
    83001f1c:	00050413          	mv	s0,a0
    83001f20:	00050663          	beqz	a0,83001f2c <_ZL6cmd_rmPc+0x24>
    83001f24:	fffff097          	auipc	ra,0xfffff
    83001f28:	5d4080e7          	jalr	1492(ra) # 830014f8 <_Z20DeletePlayerPropertyP6Player>
    83001f2c:	00813083          	ld	ra,8(sp)
    83001f30:	00143513          	seqz	a0,s0
    83001f34:	00013403          	ld	s0,0(sp)
    83001f38:	01010113          	addi	sp,sp,16
    83001f3c:	00008067          	ret

0000000083001f40 <_ZL7cmd_addPc>:
    83001f40:	f7010113          	addi	sp,sp,-144
    83001f44:	08813023          	sd	s0,128(sp)
    83001f48:	00050413          	mv	s0,a0
    83001f4c:	01810513          	addi	a0,sp,24
    83001f50:	08113423          	sd	ra,136(sp)
    83001f54:	06913c23          	sd	s1,120(sp)
    83001f58:	ffffe097          	auipc	ra,0xffffe
    83001f5c:	3e0080e7          	jalr	992(ra) # 83000338 <_Z7MD5InitP7MD5_CTX>
    83001f60:	00040513          	mv	a0,s0
    83001f64:	00000097          	auipc	ra,0x0
    83001f68:	1f0080e7          	jalr	496(ra) # 83002154 <strlen>
    83001f6c:	0005061b          	sext.w	a2,a0
    83001f70:	00040593          	mv	a1,s0
    83001f74:	01810513          	addi	a0,sp,24
    83001f78:	fffff097          	auipc	ra,0xfffff
    83001f7c:	1c4080e7          	jalr	452(ra) # 8300113c <_Z9MD5UpdateP7MD5_CTXPhj>
    83001f80:	00810593          	addi	a1,sp,8
    83001f84:	01810513          	addi	a0,sp,24
    83001f88:	00013423          	sd	zero,8(sp)
    83001f8c:	00013823          	sd	zero,16(sp)
    83001f90:	fffff097          	auipc	ra,0xfffff
    83001f94:	2ec080e7          	jalr	748(ra) # 8300127c <_Z8MD5FinalP7MD5_CTXPh>
    83001f98:	fffff097          	auipc	ra,0xfffff
    83001f9c:	3b4080e7          	jalr	948(ra) # 8300134c <_Z11AllocPlayerv>
    83001fa0:	00050493          	mv	s1,a0
    83001fa4:	00050a63          	beqz	a0,83001fb8 <_ZL7cmd_addPc+0x78>
    83001fa8:	00810613          	addi	a2,sp,8
    83001fac:	00040593          	mv	a1,s0
    83001fb0:	fffff097          	auipc	ra,0xfffff
    83001fb4:	49c080e7          	jalr	1180(ra) # 8300144c <_Z18FillPlayerPropertyP6PlayerPcPh>
    83001fb8:	08813083          	ld	ra,136(sp)
    83001fbc:	08013403          	ld	s0,128(sp)
    83001fc0:	0014b513          	seqz	a0,s1
    83001fc4:	07813483          	ld	s1,120(sp)
    83001fc8:	09010113          	addi	sp,sp,144
    83001fcc:	00008067          	ret

0000000083001fd0 <_ZN8Terminal8keypressEc>:
    83001fd0:	ff010113          	addi	sp,sp,-16
    83001fd4:	00113423          	sd	ra,8(sp)
    83001fd8:	00813023          	sd	s0,0(sp)
    83001fdc:	01b00793          	li	a5,27
    83001fe0:	02b7e063          	bltu	a5,a1,83002000 <_ZN8Terminal8keypressEc+0x30>
    83001fe4:	00006717          	auipc	a4,0x6
    83001fe8:	20470713          	addi	a4,a4,516 # 830081e8 <_ZL9cmd_table+0x90>
    83001fec:	00259793          	slli	a5,a1,0x2
    83001ff0:	00e787b3          	add	a5,a5,a4
    83001ff4:	0007a783          	lw	a5,0(a5)
    83001ff8:	00e787b3          	add	a5,a5,a4
    83001ffc:	00078067          	jr	a5
    83002000:	20052783          	lw	a5,512(a0)
    83002004:	0ff00693          	li	a3,255
    83002008:	00000413          	li	s0,0
    8300200c:	0017861b          	addiw	a2,a5,1
    83002010:	00c6e863          	bltu	a3,a2,83002020 <_ZN8Terminal8keypressEc+0x50>
    83002014:	20c52023          	sw	a2,512(a0)
    83002018:	00f50533          	add	a0,a0,a5
    8300201c:	00b50023          	sb	a1,0(a0)
    83002020:	00813083          	ld	ra,8(sp)
    83002024:	00040513          	mv	a0,s0
    83002028:	00013403          	ld	s0,0(sp)
    8300202c:	01010113          	addi	sp,sp,16
    83002030:	00008067          	ret
    83002034:	20052783          	lw	a5,512(a0)
    83002038:	10050413          	addi	s0,a0,256
    8300203c:	00050593          	mv	a1,a0
    83002040:	00f50533          	add	a0,a0,a5
    83002044:	00050023          	sb	zero,0(a0)
    83002048:	00040513          	mv	a0,s0
    8300204c:	00000097          	auipc	ra,0x0
    83002050:	250080e7          	jalr	592(ra) # 8300229c <strcpy>
    83002054:	00813083          	ld	ra,8(sp)
    83002058:	00040513          	mv	a0,s0
    8300205c:	00013403          	ld	s0,0(sp)
    83002060:	01010113          	addi	sp,sp,16
    83002064:	00008067          	ret
    83002068:	20052783          	lw	a5,512(a0)
    8300206c:	00000413          	li	s0,0
    83002070:	faf058e3          	blez	a5,83002020 <_ZN8Terminal8keypressEc+0x50>
    83002074:	fff7879b          	addiw	a5,a5,-1
    83002078:	00813083          	ld	ra,8(sp)
    8300207c:	20f52023          	sw	a5,512(a0)
    83002080:	00040513          	mv	a0,s0
    83002084:	00013403          	ld	s0,0(sp)
    83002088:	01010113          	addi	sp,sp,16
    8300208c:	00008067          	ret
    83002090:	00000413          	li	s0,0
    83002094:	00813083          	ld	ra,8(sp)
    83002098:	00040513          	mv	a0,s0
    8300209c:	00013403          	ld	s0,0(sp)
    830020a0:	01010113          	addi	sp,sp,16
    830020a4:	00008067          	ret

00000000830020a8 <strcmp>:
    830020a8:	00b567b3          	or	a5,a0,a1
    830020ac:	0077f793          	andi	a5,a5,7
    830020b0:	04079a63          	bnez	a5,83002104 <strcmp+0x5c>
    830020b4:	00053783          	ld	a5,0(a0)
    830020b8:	0005b703          	ld	a4,0(a1)
    830020bc:	04e79463          	bne	a5,a4,83002104 <strcmp+0x5c>
    830020c0:	00008617          	auipc	a2,0x8
    830020c4:	51063603          	ld	a2,1296(a2) # 8300a5d0 <__SDATA_BEGIN__>
    830020c8:	00008697          	auipc	a3,0x8
    830020cc:	5106b683          	ld	a3,1296(a3) # 8300a5d8 <__SDATA_BEGIN__+0x8>
    830020d0:	0100006f          	j	830020e0 <strcmp+0x38>
    830020d4:	00053783          	ld	a5,0(a0)
    830020d8:	0005b703          	ld	a4,0(a1)
    830020dc:	02e79463          	bne	a5,a4,83002104 <strcmp+0x5c>
    830020e0:	00c78733          	add	a4,a5,a2
    830020e4:	fff7c793          	not	a5,a5
    830020e8:	00f777b3          	and	a5,a4,a5
    830020ec:	00d7f7b3          	and	a5,a5,a3
    830020f0:	00850513          	addi	a0,a0,8
    830020f4:	00858593          	addi	a1,a1,8
    830020f8:	fc078ee3          	beqz	a5,830020d4 <strcmp+0x2c>
    830020fc:	00000513          	li	a0,0
    83002100:	00008067          	ret
    83002104:	00054783          	lbu	a5,0(a0)
    83002108:	00079a63          	bnez	a5,8300211c <strcmp+0x74>
    8300210c:	03c0006f          	j	83002148 <strcmp+0xa0>
    83002110:	00054783          	lbu	a5,0(a0)
    83002114:	02078263          	beqz	a5,83002138 <strcmp+0x90>
    83002118:	00068593          	mv	a1,a3
    8300211c:	0005c703          	lbu	a4,0(a1)
    83002120:	00150513          	addi	a0,a0,1
    83002124:	00158693          	addi	a3,a1,1
    83002128:	fef704e3          	beq	a4,a5,83002110 <strcmp+0x68>
    8300212c:	0007851b          	sext.w	a0,a5
    83002130:	40e5053b          	subw	a0,a0,a4
    83002134:	00008067          	ret
    83002138:	0015c703          	lbu	a4,1(a1)
    8300213c:	00000513          	li	a0,0
    83002140:	40e5053b          	subw	a0,a0,a4
    83002144:	00008067          	ret
    83002148:	0005c703          	lbu	a4,0(a1)
    8300214c:	00000513          	li	a0,0
    83002150:	fe1ff06f          	j	83002130 <strcmp+0x88>

0000000083002154 <strlen>:
    83002154:	00757793          	andi	a5,a0,7
    83002158:	02078463          	beqz	a5,83002180 <strlen+0x2c>
    8300215c:	00050793          	mv	a5,a0
    83002160:	0100006f          	j	83002170 <strlen+0x1c>
    83002164:	00178793          	addi	a5,a5,1
    83002168:	0077f713          	andi	a4,a5,7
    8300216c:	00070c63          	beqz	a4,83002184 <strlen+0x30>
    83002170:	0007c703          	lbu	a4,0(a5)
    83002174:	fe0718e3          	bnez	a4,83002164 <strlen+0x10>
    83002178:	40a78533          	sub	a0,a5,a0
    8300217c:	00008067          	ret
    83002180:	00050793          	mv	a5,a0
    83002184:	0007b683          	ld	a3,0(a5)
    83002188:	00008597          	auipc	a1,0x8
    8300218c:	4485b583          	ld	a1,1096(a1) # 8300a5d0 <__SDATA_BEGIN__>
    83002190:	00008617          	auipc	a2,0x8
    83002194:	44863603          	ld	a2,1096(a2) # 8300a5d8 <__SDATA_BEGIN__+0x8>
    83002198:	00c0006f          	j	830021a4 <strlen+0x50>
    8300219c:	0087b683          	ld	a3,8(a5)
    830021a0:	00878793          	addi	a5,a5,8
    830021a4:	00b68733          	add	a4,a3,a1
    830021a8:	fff6c693          	not	a3,a3
    830021ac:	00d77733          	and	a4,a4,a3
    830021b0:	00c77733          	and	a4,a4,a2
    830021b4:	fe0704e3          	beqz	a4,8300219c <strlen+0x48>
    830021b8:	0007c703          	lbu	a4,0(a5)
    830021bc:	fa070ee3          	beqz	a4,83002178 <strlen+0x24>
    830021c0:	0017c703          	lbu	a4,1(a5)
    830021c4:	00178793          	addi	a5,a5,1
    830021c8:	fa0708e3          	beqz	a4,83002178 <strlen+0x24>
    830021cc:	0017c703          	lbu	a4,1(a5)
    830021d0:	00178793          	addi	a5,a5,1
    830021d4:	fe0716e3          	bnez	a4,830021c0 <strlen+0x6c>
    830021d8:	fa1ff06f          	j	83002178 <strlen+0x24>

00000000830021dc <strncpy>:
    830021dc:	00b567b3          	or	a5,a0,a1
    830021e0:	0077f793          	andi	a5,a5,7
    830021e4:	00050713          	mv	a4,a0
    830021e8:	06079863          	bnez	a5,83002258 <strncpy+0x7c>
    830021ec:	00700793          	li	a5,7
    830021f0:	06c7f463          	bgeu	a5,a2,83002258 <strncpy+0x7c>
    830021f4:	00008317          	auipc	t1,0x8
    830021f8:	3dc33303          	ld	t1,988(t1) # 8300a5d0 <__SDATA_BEGIN__>
    830021fc:	00008897          	auipc	a7,0x8
    83002200:	3dc8b883          	ld	a7,988(a7) # 8300a5d8 <__SDATA_BEGIN__+0x8>
    83002204:	00700e13          	li	t3,7
    83002208:	0005b683          	ld	a3,0(a1)
    8300220c:	006687b3          	add	a5,a3,t1
    83002210:	fff6c813          	not	a6,a3
    83002214:	0107f7b3          	and	a5,a5,a6
    83002218:	0117f7b3          	and	a5,a5,a7
    8300221c:	02079e63          	bnez	a5,83002258 <strncpy+0x7c>
    83002220:	00d73023          	sd	a3,0(a4)
    83002224:	ff860613          	addi	a2,a2,-8
    83002228:	00870713          	addi	a4,a4,8
    8300222c:	00858593          	addi	a1,a1,8
    83002230:	fcce6ce3          	bltu	t3,a2,83002208 <strncpy+0x2c>
    83002234:	00158593          	addi	a1,a1,1
    83002238:	00170793          	addi	a5,a4,1
    8300223c:	02060463          	beqz	a2,83002264 <strncpy+0x88>
    83002240:	fff5c683          	lbu	a3,-1(a1)
    83002244:	fff60813          	addi	a6,a2,-1
    83002248:	fed78fa3          	sb	a3,-1(a5)
    8300224c:	00068e63          	beqz	a3,83002268 <strncpy+0x8c>
    83002250:	00078713          	mv	a4,a5
    83002254:	00080613          	mv	a2,a6
    83002258:	00158593          	addi	a1,a1,1
    8300225c:	00170793          	addi	a5,a4,1
    83002260:	fe0610e3          	bnez	a2,83002240 <strncpy+0x64>
    83002264:	00008067          	ret
    83002268:	00c70733          	add	a4,a4,a2
    8300226c:	00080a63          	beqz	a6,83002280 <strncpy+0xa4>
    83002270:	00178793          	addi	a5,a5,1
    83002274:	fe078fa3          	sb	zero,-1(a5)
    83002278:	fee79ce3          	bne	a5,a4,83002270 <strncpy+0x94>
    8300227c:	00008067          	ret
    83002280:	00008067          	ret

0000000083002284 <strtok>:
    83002284:	00008617          	auipc	a2,0x8
    83002288:	3bc63603          	ld	a2,956(a2) # 8300a640 <_impure_ptr>
    8300228c:	00100693          	li	a3,1
    83002290:	09860613          	addi	a2,a2,152
    83002294:	00003317          	auipc	t1,0x3
    83002298:	f3c30067          	jr	-196(t1) # 830051d0 <__strtok_r>

000000008300229c <strcpy>:
    8300229c:	00b567b3          	or	a5,a0,a1
    830022a0:	0077f793          	andi	a5,a5,7
    830022a4:	06079663          	bnez	a5,83002310 <strcpy+0x74>
    830022a8:	0005b683          	ld	a3,0(a1)
    830022ac:	00008817          	auipc	a6,0x8
    830022b0:	32483803          	ld	a6,804(a6) # 8300a5d0 <__SDATA_BEGIN__>
    830022b4:	00008897          	auipc	a7,0x8
    830022b8:	3248b883          	ld	a7,804(a7) # 8300a5d8 <__SDATA_BEGIN__+0x8>
    830022bc:	010687b3          	add	a5,a3,a6
    830022c0:	fff6c713          	not	a4,a3
    830022c4:	00e7f7b3          	and	a5,a5,a4
    830022c8:	0117f7b3          	and	a5,a5,a7
    830022cc:	04079263          	bnez	a5,83002310 <strcpy+0x74>
    830022d0:	00050793          	mv	a5,a0
    830022d4:	00d7b023          	sd	a3,0(a5)
    830022d8:	0085b683          	ld	a3,8(a1)
    830022dc:	00858593          	addi	a1,a1,8
    830022e0:	00878793          	addi	a5,a5,8
    830022e4:	01068733          	add	a4,a3,a6
    830022e8:	fff6c613          	not	a2,a3
    830022ec:	00c77733          	and	a4,a4,a2
    830022f0:	01177733          	and	a4,a4,a7
    830022f4:	fe0700e3          	beqz	a4,830022d4 <strcpy+0x38>
    830022f8:	0005c703          	lbu	a4,0(a1)
    830022fc:	00178793          	addi	a5,a5,1
    83002300:	00158593          	addi	a1,a1,1
    83002304:	fee78fa3          	sb	a4,-1(a5)
    83002308:	00071663          	bnez	a4,83002314 <strcpy+0x78>
    8300230c:	00008067          	ret
    83002310:	00050793          	mv	a5,a0
    83002314:	0005c703          	lbu	a4,0(a1)
    83002318:	00178793          	addi	a5,a5,1
    8300231c:	00158593          	addi	a1,a1,1
    83002320:	fee78fa3          	sb	a4,-1(a5)
    83002324:	fe0718e3          	bnez	a4,83002314 <strcpy+0x78>
    83002328:	00008067          	ret

000000008300232c <memcpy>:
    8300232c:	01f00793          	li	a5,31
    83002330:	0ac7f863          	bgeu	a5,a2,830023e0 <memcpy+0xb4>
    83002334:	00b567b3          	or	a5,a0,a1
    83002338:	0077f793          	andi	a5,a5,7
    8300233c:	0c079863          	bnez	a5,8300240c <memcpy+0xe0>
    83002340:	fe060e13          	addi	t3,a2,-32
    83002344:	fe0e7e13          	andi	t3,t3,-32
    83002348:	020e0e13          	addi	t3,t3,32
    8300234c:	01c50333          	add	t1,a0,t3
    83002350:	00058713          	mv	a4,a1
    83002354:	00050793          	mv	a5,a0
    83002358:	00873683          	ld	a3,8(a4)
    8300235c:	00073883          	ld	a7,0(a4)
    83002360:	01073803          	ld	a6,16(a4)
    83002364:	00d7b423          	sd	a3,8(a5)
    83002368:	01873683          	ld	a3,24(a4)
    8300236c:	0117b023          	sd	a7,0(a5)
    83002370:	0107b823          	sd	a6,16(a5)
    83002374:	00d7bc23          	sd	a3,24(a5)
    83002378:	02078793          	addi	a5,a5,32
    8300237c:	02070713          	addi	a4,a4,32
    83002380:	fcf31ce3          	bne	t1,a5,83002358 <memcpy+0x2c>
    83002384:	01867713          	andi	a4,a2,24
    83002388:	01c585b3          	add	a1,a1,t3
    8300238c:	01f67813          	andi	a6,a2,31
    83002390:	08070463          	beqz	a4,83002418 <memcpy+0xec>
    83002394:	00058713          	mv	a4,a1
    83002398:	00078893          	mv	a7,a5
    8300239c:	00700e13          	li	t3,7
    830023a0:	00073303          	ld	t1,0(a4)
    830023a4:	00870713          	addi	a4,a4,8
    830023a8:	40e806b3          	sub	a3,a6,a4
    830023ac:	0068b023          	sd	t1,0(a7)
    830023b0:	00d586b3          	add	a3,a1,a3
    830023b4:	00888893          	addi	a7,a7,8
    830023b8:	fede64e3          	bltu	t3,a3,830023a0 <memcpy+0x74>
    830023bc:	ff880713          	addi	a4,a6,-8
    830023c0:	ff877713          	andi	a4,a4,-8
    830023c4:	00870713          	addi	a4,a4,8
    830023c8:	00767613          	andi	a2,a2,7
    830023cc:	00e787b3          	add	a5,a5,a4
    830023d0:	00e585b3          	add	a1,a1,a4
    830023d4:	fff60693          	addi	a3,a2,-1
    830023d8:	00061a63          	bnez	a2,830023ec <memcpy+0xc0>
    830023dc:	00008067          	ret
    830023e0:	00050793          	mv	a5,a0
    830023e4:	fff60693          	addi	a3,a2,-1
    830023e8:	fe060ae3          	beqz	a2,830023dc <memcpy+0xb0>
    830023ec:	00168693          	addi	a3,a3,1
    830023f0:	00d786b3          	add	a3,a5,a3
    830023f4:	0005c703          	lbu	a4,0(a1)
    830023f8:	00178793          	addi	a5,a5,1
    830023fc:	00158593          	addi	a1,a1,1
    83002400:	fee78fa3          	sb	a4,-1(a5)
    83002404:	fef698e3          	bne	a3,a5,830023f4 <memcpy+0xc8>
    83002408:	00008067          	ret
    8300240c:	fff60693          	addi	a3,a2,-1
    83002410:	00050793          	mv	a5,a0
    83002414:	fd9ff06f          	j	830023ec <memcpy+0xc0>
    83002418:	00080613          	mv	a2,a6
    8300241c:	fc9ff06f          	j	830023e4 <memcpy+0xb8>

0000000083002420 <strncmp>:
    83002420:	0a060063          	beqz	a2,830024c0 <strncmp+0xa0>
    83002424:	00b567b3          	or	a5,a0,a1
    83002428:	0077f793          	andi	a5,a5,7
    8300242c:	08079e63          	bnez	a5,830024c8 <strncmp+0xa8>
    83002430:	00700793          	li	a5,7
    83002434:	08c7fa63          	bgeu	a5,a2,830024c8 <strncmp+0xa8>
    83002438:	00008317          	auipc	t1,0x8
    8300243c:	19833303          	ld	t1,408(t1) # 8300a5d0 <__SDATA_BEGIN__>
    83002440:	00008897          	auipc	a7,0x8
    83002444:	1988b883          	ld	a7,408(a7) # 8300a5d8 <__SDATA_BEGIN__+0x8>
    83002448:	00700e13          	li	t3,7
    8300244c:	01c0006f          	j	83002468 <strncmp+0x48>
    83002450:	ff860613          	addi	a2,a2,-8
    83002454:	06060663          	beqz	a2,830024c0 <strncmp+0xa0>
    83002458:	06079463          	bnez	a5,830024c0 <strncmp+0xa0>
    8300245c:	00850513          	addi	a0,a0,8
    83002460:	00858593          	addi	a1,a1,8
    83002464:	06ce7263          	bgeu	t3,a2,830024c8 <strncmp+0xa8>
    83002468:	00053703          	ld	a4,0(a0)
    8300246c:	0005b683          	ld	a3,0(a1)
    83002470:	006707b3          	add	a5,a4,t1
    83002474:	fff74813          	not	a6,a4
    83002478:	0107f7b3          	and	a5,a5,a6
    8300247c:	0117f7b3          	and	a5,a5,a7
    83002480:	fcd708e3          	beq	a4,a3,83002450 <strncmp+0x30>
    83002484:	00054683          	lbu	a3,0(a0)
    83002488:	0005c803          	lbu	a6,0(a1)
    8300248c:	05069a63          	bne	a3,a6,830024e0 <strncmp+0xc0>
    83002490:	00050713          	mv	a4,a0
    83002494:	0140006f          	j	830024a8 <strncmp+0x88>
    83002498:	00074683          	lbu	a3,0(a4)
    8300249c:	0005c803          	lbu	a6,0(a1)
    830024a0:	05069063          	bne	a3,a6,830024e0 <strncmp+0xc0>
    830024a4:	00078e63          	beqz	a5,830024c0 <strncmp+0xa0>
    830024a8:	00170713          	addi	a4,a4,1
    830024ac:	40e607b3          	sub	a5,a2,a4
    830024b0:	fff78793          	addi	a5,a5,-1
    830024b4:	00158593          	addi	a1,a1,1
    830024b8:	00f507b3          	add	a5,a0,a5
    830024bc:	fc069ee3          	bnez	a3,83002498 <strncmp+0x78>
    830024c0:	00000513          	li	a0,0
    830024c4:	00008067          	ret
    830024c8:	00054683          	lbu	a3,0(a0)
    830024cc:	0005c803          	lbu	a6,0(a1)
    830024d0:	00d81863          	bne	a6,a3,830024e0 <strncmp+0xc0>
    830024d4:	00100793          	li	a5,1
    830024d8:	faf61ce3          	bne	a2,a5,83002490 <strncmp+0x70>
    830024dc:	fe5ff06f          	j	830024c0 <strncmp+0xa0>
    830024e0:	4106853b          	subw	a0,a3,a6
    830024e4:	00008067          	ret

00000000830024e8 <read>:
    830024e8:	00060693          	mv	a3,a2
    830024ec:	00058613          	mv	a2,a1
    830024f0:	00050593          	mv	a1,a0
    830024f4:	00008517          	auipc	a0,0x8
    830024f8:	14c53503          	ld	a0,332(a0) # 8300a640 <_impure_ptr>
    830024fc:	00002317          	auipc	t1,0x2
    83002500:	ebc30067          	jr	-324(t1) # 830043b8 <_read_r>

0000000083002504 <_printf_r>:
    83002504:	fb010113          	addi	sp,sp,-80
    83002508:	02c13023          	sd	a2,32(sp)
    8300250c:	02d13423          	sd	a3,40(sp)
    83002510:	02e13823          	sd	a4,48(sp)
    83002514:	02f13c23          	sd	a5,56(sp)
    83002518:	05013023          	sd	a6,64(sp)
    8300251c:	05113423          	sd	a7,72(sp)
    83002520:	00058613          	mv	a2,a1
    83002524:	01053583          	ld	a1,16(a0)
    83002528:	02010693          	addi	a3,sp,32
    8300252c:	00113c23          	sd	ra,24(sp)
    83002530:	00d13423          	sd	a3,8(sp)
    83002534:	00000097          	auipc	ra,0x0
    83002538:	068080e7          	jalr	104(ra) # 8300259c <_vfprintf_r>
    8300253c:	01813083          	ld	ra,24(sp)
    83002540:	05010113          	addi	sp,sp,80
    83002544:	00008067          	ret

0000000083002548 <printf>:
    83002548:	fa010113          	addi	sp,sp,-96
    8300254c:	02c13823          	sd	a2,48(sp)
    83002550:	02d13c23          	sd	a3,56(sp)
    83002554:	00008317          	auipc	t1,0x8
    83002558:	0ec33303          	ld	t1,236(t1) # 8300a640 <_impure_ptr>
    8300255c:	02b13423          	sd	a1,40(sp)
    83002560:	04e13023          	sd	a4,64(sp)
    83002564:	04f13423          	sd	a5,72(sp)
    83002568:	05013823          	sd	a6,80(sp)
    8300256c:	05113c23          	sd	a7,88(sp)
    83002570:	01033583          	ld	a1,16(t1)
    83002574:	02810693          	addi	a3,sp,40
    83002578:	00050613          	mv	a2,a0
    8300257c:	00030513          	mv	a0,t1
    83002580:	00113c23          	sd	ra,24(sp)
    83002584:	00d13423          	sd	a3,8(sp)
    83002588:	00000097          	auipc	ra,0x0
    8300258c:	014080e7          	jalr	20(ra) # 8300259c <_vfprintf_r>
    83002590:	01813083          	ld	ra,24(sp)
    83002594:	06010113          	addi	sp,sp,96
    83002598:	00008067          	ret

000000008300259c <_vfprintf_r>:
    8300259c:	f2010113          	addi	sp,sp,-224
    830025a0:	0d213023          	sd	s2,192(sp)
    830025a4:	0b313c23          	sd	s3,184(sp)
    830025a8:	0b413823          	sd	s4,176(sp)
    830025ac:	09713c23          	sd	s7,152(sp)
    830025b0:	0c113c23          	sd	ra,216(sp)
    830025b4:	0c813823          	sd	s0,208(sp)
    830025b8:	0c913423          	sd	s1,200(sp)
    830025bc:	0b513423          	sd	s5,168(sp)
    830025c0:	0b613023          	sd	s6,160(sp)
    830025c4:	09813823          	sd	s8,144(sp)
    830025c8:	09913423          	sd	s9,136(sp)
    830025cc:	09a13023          	sd	s10,128(sp)
    830025d0:	07b13c23          	sd	s11,120(sp)
    830025d4:	00050a13          	mv	s4,a0
    830025d8:	00058993          	mv	s3,a1
    830025dc:	00060913          	mv	s2,a2
    830025e0:	00068b93          	mv	s7,a3
    830025e4:	00050663          	beqz	a0,830025f0 <_vfprintf_r+0x54>
    830025e8:	05052783          	lw	a5,80(a0)
    830025ec:	22078c63          	beqz	a5,83002824 <_vfprintf_r+0x288>
    830025f0:	0109d783          	lhu	a5,16(s3)
    830025f4:	0087f793          	andi	a5,a5,8
    830025f8:	1e078e63          	beqz	a5,830027f4 <_vfprintf_r+0x258>
    830025fc:	0189b783          	ld	a5,24(s3)
    83002600:	1e078a63          	beqz	a5,830027f4 <_vfprintf_r+0x258>
    83002604:	ffff87b7          	lui	a5,0xffff8
    83002608:	8307c793          	xori	a5,a5,-2000
    8300260c:	00013823          	sd	zero,16(sp)
    83002610:	00013423          	sd	zero,8(sp)
    83002614:	02f13423          	sd	a5,40(sp)
    83002618:	00094783          	lbu	a5,0(s2)
    8300261c:	18078663          	beqz	a5,830027a8 <_vfprintf_r+0x20c>
    83002620:	00090413          	mv	s0,s2
    83002624:	02500713          	li	a4,37
    83002628:	1ee78663          	beq	a5,a4,83002814 <_vfprintf_r+0x278>
    8300262c:	00144783          	lbu	a5,1(s0)
    83002630:	00140413          	addi	s0,s0,1
    83002634:	fe079ae3          	bnez	a5,83002628 <_vfprintf_r+0x8c>
    83002638:	412404bb          	subw	s1,s0,s2
    8300263c:	16048663          	beqz	s1,830027a8 <_vfprintf_r+0x20c>
    83002640:	00048693          	mv	a3,s1
    83002644:	00090613          	mv	a2,s2
    83002648:	00098593          	mv	a1,s3
    8300264c:	000a0513          	mv	a0,s4
    83002650:	00001097          	auipc	ra,0x1
    83002654:	9e0080e7          	jalr	-1568(ra) # 83003030 <__sfputs_r>
    83002658:	fff00793          	li	a5,-1
    8300265c:	14f50663          	beq	a0,a5,830027a8 <_vfprintf_r+0x20c>
    83002660:	00813703          	ld	a4,8(sp)
    83002664:	00044783          	lbu	a5,0(s0)
    83002668:	0097073b          	addw	a4,a4,s1
    8300266c:	00e13423          	sd	a4,8(sp)
    83002670:	12078c63          	beqz	a5,830027a8 <_vfprintf_r+0x20c>
    83002674:	00140793          	addi	a5,s0,1
    83002678:	02010fa3          	sb	zero,63(sp)
    8300267c:	00000813          	li	a6,0
    83002680:	00000893          	li	a7,0
    83002684:	fff00413          	li	s0,-1
    83002688:	00000b13          	li	s6,0
    8300268c:	00000693          	li	a3,0
    83002690:	05800593          	li	a1,88
    83002694:	00900513          	li	a0,9
    83002698:	02a00313          	li	t1,42
    8300269c:	0007c703          	lbu	a4,0(a5) # ffffffffffff8000 <__BSS_END__+0xffffffff7cfed380>
    830026a0:	00178913          	addi	s2,a5,1
    830026a4:	fe07079b          	addiw	a5,a4,-32
    830026a8:	0007861b          	sext.w	a2,a5
    830026ac:	04c5ee63          	bltu	a1,a2,83002708 <_vfprintf_r+0x16c>
    830026b0:	02079613          	slli	a2,a5,0x20
    830026b4:	01e65793          	srli	a5,a2,0x1e
    830026b8:	00006617          	auipc	a2,0x6
    830026bc:	bd860613          	addi	a2,a2,-1064 # 83008290 <_ZL9cmd_table+0x138>
    830026c0:	00c787b3          	add	a5,a5,a2
    830026c4:	0007a783          	lw	a5,0(a5)
    830026c8:	00c787b3          	add	a5,a5,a2
    830026cc:	00078067          	jr	a5
    830026d0:	00000b13          	li	s6,0
    830026d4:	00094603          	lbu	a2,0(s2)
    830026d8:	002b179b          	slliw	a5,s6,0x2
    830026dc:	016787bb          	addw	a5,a5,s6
    830026e0:	fd07071b          	addiw	a4,a4,-48
    830026e4:	0017979b          	slliw	a5,a5,0x1
    830026e8:	fd060e1b          	addiw	t3,a2,-48
    830026ec:	00f70b3b          	addw	s6,a4,a5
    830026f0:	00190913          	addi	s2,s2,1
    830026f4:	0006071b          	sext.w	a4,a2
    830026f8:	fdc57ee3          	bgeu	a0,t3,830026d4 <_vfprintf_r+0x138>
    830026fc:	fe07079b          	addiw	a5,a4,-32
    83002700:	0007861b          	sext.w	a2,a5
    83002704:	fac5f6e3          	bgeu	a1,a2,830026b0 <_vfprintf_r+0x114>
    83002708:	0a070063          	beqz	a4,830027a8 <_vfprintf_r+0x20c>
    8300270c:	04e10423          	sb	a4,72(sp)
    83002710:	02010fa3          	sb	zero,63(sp)
    83002714:	00100c13          	li	s8,1
    83002718:	00100c93          	li	s9,1
    8300271c:	04810493          	addi	s1,sp,72
    83002720:	00068a93          	mv	s5,a3
    83002724:	00000413          	li	s0,0
    83002728:	002afd93          	andi	s11,s5,2
    8300272c:	000d8463          	beqz	s11,83002734 <_vfprintf_r+0x198>
    83002730:	002c0c1b          	addiw	s8,s8,2
    83002734:	084af793          	andi	a5,s5,132
    83002738:	00f13c23          	sd	a5,24(sp)
    8300273c:	00079663          	bnez	a5,83002748 <_vfprintf_r+0x1ac>
    83002740:	418b0d3b          	subw	s10,s6,s8
    83002744:	65a04063          	bgtz	s10,83002d84 <_vfprintf_r+0x7e8>
    83002748:	03f14783          	lbu	a5,63(sp)
    8300274c:	10079a63          	bnez	a5,83002860 <_vfprintf_r+0x2c4>
    83002750:	120d9a63          	bnez	s11,83002884 <_vfprintf_r+0x2e8>
    83002754:	01813703          	ld	a4,24(sp)
    83002758:	08000793          	li	a5,128
    8300275c:	14f70a63          	beq	a4,a5,830028b0 <_vfprintf_r+0x314>
    83002760:	41940dbb          	subw	s11,s0,s9
    83002764:	57b05063          	blez	s11,83002cc4 <_vfprintf_r+0x728>
    83002768:	01000713          	li	a4,16
    8300276c:	53b75a63          	bge	a4,s11,83002ca0 <_vfprintf_r+0x704>
    83002770:	00006d17          	auipc	s10,0x6
    83002774:	c98d0d13          	addi	s10,s10,-872 # 83008408 <zeroes.0>
    83002778:	fff00413          	li	s0,-1
    8300277c:	0100006f          	j	8300278c <_vfprintf_r+0x1f0>
    83002780:	ff0d8d9b          	addiw	s11,s11,-16
    83002784:	01000713          	li	a4,16
    83002788:	51b75c63          	bge	a4,s11,83002ca0 <_vfprintf_r+0x704>
    8300278c:	01000693          	li	a3,16
    83002790:	000d0613          	mv	a2,s10
    83002794:	00098593          	mv	a1,s3
    83002798:	000a0513          	mv	a0,s4
    8300279c:	00001097          	auipc	ra,0x1
    830027a0:	894080e7          	jalr	-1900(ra) # 83003030 <__sfputs_r>
    830027a4:	fc851ee3          	bne	a0,s0,83002780 <_vfprintf_r+0x1e4>
    830027a8:	0109d783          	lhu	a5,16(s3)
    830027ac:	0407f793          	andi	a5,a5,64
    830027b0:	04079c63          	bnez	a5,83002808 <_vfprintf_r+0x26c>
    830027b4:	0d813083          	ld	ra,216(sp)
    830027b8:	0d013403          	ld	s0,208(sp)
    830027bc:	00813503          	ld	a0,8(sp)
    830027c0:	0c813483          	ld	s1,200(sp)
    830027c4:	0c013903          	ld	s2,192(sp)
    830027c8:	0b813983          	ld	s3,184(sp)
    830027cc:	0b013a03          	ld	s4,176(sp)
    830027d0:	0a813a83          	ld	s5,168(sp)
    830027d4:	0a013b03          	ld	s6,160(sp)
    830027d8:	09813b83          	ld	s7,152(sp)
    830027dc:	09013c03          	ld	s8,144(sp)
    830027e0:	08813c83          	ld	s9,136(sp)
    830027e4:	08013d03          	ld	s10,128(sp)
    830027e8:	07813d83          	ld	s11,120(sp)
    830027ec:	0e010113          	addi	sp,sp,224
    830027f0:	00008067          	ret
    830027f4:	00098593          	mv	a1,s3
    830027f8:	000a0513          	mv	a0,s4
    830027fc:	00002097          	auipc	ra,0x2
    83002800:	a44080e7          	jalr	-1468(ra) # 83004240 <__swsetup_r>
    83002804:	e00500e3          	beqz	a0,83002604 <_vfprintf_r+0x68>
    83002808:	fff00793          	li	a5,-1
    8300280c:	00f13423          	sd	a5,8(sp)
    83002810:	fa5ff06f          	j	830027b4 <_vfprintf_r+0x218>
    83002814:	412404bb          	subw	s1,s0,s2
    83002818:	e20494e3          	bnez	s1,83002640 <_vfprintf_r+0xa4>
    8300281c:	00044783          	lbu	a5,0(s0)
    83002820:	e51ff06f          	j	83002670 <_vfprintf_r+0xd4>
    83002824:	00002097          	auipc	ra,0x2
    83002828:	9c8080e7          	jalr	-1592(ra) # 830041ec <__sinit>
    8300282c:	dc5ff06f          	j	830025f0 <_vfprintf_r+0x54>
    83002830:	0106e693          	ori	a3,a3,16
    83002834:	0006869b          	sext.w	a3,a3
    83002838:	00090793          	mv	a5,s2
    8300283c:	e61ff06f          	j	8300269c <_vfprintf_r+0x100>
    83002840:	000bab03          	lw	s6,0(s7)
    83002844:	008b8b93          	addi	s7,s7,8
    83002848:	fe0b58e3          	bgez	s6,83002838 <_vfprintf_r+0x29c>
    8300284c:	41600b3b          	negw	s6,s6
    83002850:	0046e693          	ori	a3,a3,4
    83002854:	0006869b          	sext.w	a3,a3
    83002858:	00090793          	mv	a5,s2
    8300285c:	e41ff06f          	j	8300269c <_vfprintf_r+0x100>
    83002860:	00100693          	li	a3,1
    83002864:	03f10613          	addi	a2,sp,63
    83002868:	00098593          	mv	a1,s3
    8300286c:	000a0513          	mv	a0,s4
    83002870:	00000097          	auipc	ra,0x0
    83002874:	7c0080e7          	jalr	1984(ra) # 83003030 <__sfputs_r>
    83002878:	fff00793          	li	a5,-1
    8300287c:	f2f506e3          	beq	a0,a5,830027a8 <_vfprintf_r+0x20c>
    83002880:	ec0d8ae3          	beqz	s11,83002754 <_vfprintf_r+0x1b8>
    83002884:	00200693          	li	a3,2
    83002888:	04010613          	addi	a2,sp,64
    8300288c:	00098593          	mv	a1,s3
    83002890:	000a0513          	mv	a0,s4
    83002894:	00000097          	auipc	ra,0x0
    83002898:	79c080e7          	jalr	1948(ra) # 83003030 <__sfputs_r>
    8300289c:	fff00793          	li	a5,-1
    830028a0:	f0f504e3          	beq	a0,a5,830027a8 <_vfprintf_r+0x20c>
    830028a4:	01813703          	ld	a4,24(sp)
    830028a8:	08000793          	li	a5,128
    830028ac:	eaf71ae3          	bne	a4,a5,83002760 <_vfprintf_r+0x1c4>
    830028b0:	418b0d3b          	subw	s10,s6,s8
    830028b4:	eba056e3          	blez	s10,83002760 <_vfprintf_r+0x1c4>
    830028b8:	01000713          	li	a4,16
    830028bc:	59a75463          	bge	a4,s10,83002e44 <_vfprintf_r+0x8a8>
    830028c0:	00006d97          	auipc	s11,0x6
    830028c4:	b48d8d93          	addi	s11,s11,-1208 # 83008408 <zeroes.0>
    830028c8:	0100006f          	j	830028d8 <_vfprintf_r+0x33c>
    830028cc:	ff0d0d1b          	addiw	s10,s10,-16
    830028d0:	01000713          	li	a4,16
    830028d4:	57a75863          	bge	a4,s10,83002e44 <_vfprintf_r+0x8a8>
    830028d8:	01000693          	li	a3,16
    830028dc:	000d8613          	mv	a2,s11
    830028e0:	00098593          	mv	a1,s3
    830028e4:	000a0513          	mv	a0,s4
    830028e8:	00000097          	auipc	ra,0x0
    830028ec:	748080e7          	jalr	1864(ra) # 83003030 <__sfputs_r>
    830028f0:	fff00793          	li	a5,-1
    830028f4:	fcf51ce3          	bne	a0,a5,830028cc <_vfprintf_r+0x330>
    830028f8:	eb1ff06f          	j	830027a8 <_vfprintf_r+0x20c>
    830028fc:	6e081263          	bnez	a6,83002fe0 <_vfprintf_r+0xa44>
    83002900:	0106f793          	andi	a5,a3,16
    83002904:	008b8713          	addi	a4,s7,8
    83002908:	12079c63          	bnez	a5,83002a40 <_vfprintf_r+0x4a4>
    8300290c:	0406f793          	andi	a5,a3,64
    83002910:	000bac03          	lw	s8,0(s7)
    83002914:	5e078063          	beqz	a5,83002ef4 <_vfprintf_r+0x958>
    83002918:	010c1c1b          	slliw	s8,s8,0x10
    8300291c:	410c5c1b          	sraiw	s8,s8,0x10
    83002920:	000c0793          	mv	a5,s8
    83002924:	00070b93          	mv	s7,a4
    83002928:	1207c463          	bltz	a5,83002a50 <_vfprintf_r+0x4b4>
    8300292c:	fff00793          	li	a5,-1
    83002930:	03f14703          	lbu	a4,63(sp)
    83002934:	42f40863          	beq	s0,a5,83002d64 <_vfprintf_r+0x7c8>
    83002938:	f7f6f693          	andi	a3,a3,-129
    8300293c:	00068a9b          	sext.w	s5,a3
    83002940:	600c1463          	bnez	s8,83002f48 <_vfprintf_r+0x9ac>
    83002944:	66041263          	bnez	s0,83002fa8 <_vfprintf_r+0xa0c>
    83002948:	00000413          	li	s0,0
    8300294c:	00000c93          	li	s9,0
    83002950:	07010493          	addi	s1,sp,112
    83002954:	00040793          	mv	a5,s0
    83002958:	01945463          	bge	s0,s9,83002960 <_vfprintf_r+0x3c4>
    8300295c:	000c8793          	mv	a5,s9
    83002960:	00078c1b          	sext.w	s8,a5
    83002964:	dc0702e3          	beqz	a4,83002728 <_vfprintf_r+0x18c>
    83002968:	00178c1b          	addiw	s8,a5,1
    8300296c:	dbdff06f          	j	83002728 <_vfprintf_r+0x18c>
    83002970:	0106e693          	ori	a3,a3,16
    83002974:	0006869b          	sext.w	a3,a3
    83002978:	008b8713          	addi	a4,s7,8
    8300297c:	000bbc03          	ld	s8,0(s7)
    83002980:	00000793          	li	a5,0
    83002984:	00070b93          	mv	s7,a4
    83002988:	00000713          	li	a4,0
    8300298c:	02e10fa3          	sb	a4,63(sp)
    83002990:	fff00613          	li	a2,-1
    83002994:	0cc40a63          	beq	s0,a2,83002a68 <_vfprintf_r+0x4cc>
    83002998:	f7f6fa93          	andi	s5,a3,-129
    8300299c:	000a8a9b          	sext.w	s5,s5
    830029a0:	3a0c1c63          	bnez	s8,83002d58 <_vfprintf_r+0x7bc>
    830029a4:	36041663          	bnez	s0,83002d10 <_vfprintf_r+0x774>
    830029a8:	fa0790e3          	bnez	a5,83002948 <_vfprintf_r+0x3ac>
    830029ac:	0016fc93          	andi	s9,a3,1
    830029b0:	07010493          	addi	s1,sp,112
    830029b4:	fa0c80e3          	beqz	s9,83002954 <_vfprintf_r+0x3b8>
    830029b8:	03000793          	li	a5,48
    830029bc:	06f107a3          	sb	a5,111(sp)
    830029c0:	06f10493          	addi	s1,sp,111
    830029c4:	f91ff06f          	j	83002954 <_vfprintf_r+0x3b8>
    830029c8:	0106e693          	ori	a3,a3,16
    830029cc:	0006869b          	sext.w	a3,a3
    830029d0:	008b8713          	addi	a4,s7,8
    830029d4:	000bbc03          	ld	s8,0(s7)
    830029d8:	00100793          	li	a5,1
    830029dc:	00070b93          	mv	s7,a4
    830029e0:	fa9ff06f          	j	83002988 <_vfprintf_r+0x3ec>
    830029e4:	00094703          	lbu	a4,0(s2)
    830029e8:	00190913          	addi	s2,s2,1
    830029ec:	60670663          	beq	a4,t1,83002ff8 <_vfprintf_r+0xa5c>
    830029f0:	fd07061b          	addiw	a2,a4,-48
    830029f4:	00000413          	li	s0,0
    830029f8:	cac566e3          	bltu	a0,a2,830026a4 <_vfprintf_r+0x108>
    830029fc:	00094703          	lbu	a4,0(s2)
    83002a00:	0024179b          	slliw	a5,s0,0x2
    83002a04:	008787bb          	addw	a5,a5,s0
    83002a08:	0017979b          	slliw	a5,a5,0x1
    83002a0c:	00c7843b          	addw	s0,a5,a2
    83002a10:	fd07061b          	addiw	a2,a4,-48
    83002a14:	00190913          	addi	s2,s2,1
    83002a18:	fec572e3          	bgeu	a0,a2,830029fc <_vfprintf_r+0x460>
    83002a1c:	c89ff06f          	j	830026a4 <_vfprintf_r+0x108>
    83002a20:	0806e693          	ori	a3,a3,128
    83002a24:	0006869b          	sext.w	a3,a3
    83002a28:	00090793          	mv	a5,s2
    83002a2c:	c71ff06f          	j	8300269c <_vfprintf_r+0x100>
    83002a30:	5c081063          	bnez	a6,83002ff0 <_vfprintf_r+0xa54>
    83002a34:	0106e693          	ori	a3,a3,16
    83002a38:	0006869b          	sext.w	a3,a3
    83002a3c:	008b8713          	addi	a4,s7,8
    83002a40:	000bb783          	ld	a5,0(s7)
    83002a44:	00070b93          	mv	s7,a4
    83002a48:	00078c13          	mv	s8,a5
    83002a4c:	ee07d0e3          	bgez	a5,8300292c <_vfprintf_r+0x390>
    83002a50:	02d00713          	li	a4,45
    83002a54:	02e10fa3          	sb	a4,63(sp)
    83002a58:	fff00613          	li	a2,-1
    83002a5c:	41800c33          	neg	s8,s8
    83002a60:	00100793          	li	a5,1
    83002a64:	f2c41ae3          	bne	s0,a2,83002998 <_vfprintf_r+0x3fc>
    83002a68:	00100613          	li	a2,1
    83002a6c:	2ec78c63          	beq	a5,a2,83002d64 <_vfprintf_r+0x7c8>
    83002a70:	00200613          	li	a2,2
    83002a74:	2ac78863          	beq	a5,a2,83002d24 <_vfprintf_r+0x788>
    83002a78:	07010493          	addi	s1,sp,112
    83002a7c:	007c7793          	andi	a5,s8,7
    83002a80:	03078793          	addi	a5,a5,48
    83002a84:	fef48fa3          	sb	a5,-1(s1)
    83002a88:	003c5c13          	srli	s8,s8,0x3
    83002a8c:	00048613          	mv	a2,s1
    83002a90:	fff48493          	addi	s1,s1,-1
    83002a94:	fe0c14e3          	bnez	s8,83002a7c <_vfprintf_r+0x4e0>
    83002a98:	0016f593          	andi	a1,a3,1
    83002a9c:	2a058663          	beqz	a1,83002d48 <_vfprintf_r+0x7ac>
    83002aa0:	03000593          	li	a1,48
    83002aa4:	2ab78263          	beq	a5,a1,83002d48 <_vfprintf_r+0x7ac>
    83002aa8:	ffe60613          	addi	a2,a2,-2
    83002aac:	07010793          	addi	a5,sp,112
    83002ab0:	feb48fa3          	sb	a1,-1(s1)
    83002ab4:	40c78cbb          	subw	s9,a5,a2
    83002ab8:	00068a93          	mv	s5,a3
    83002abc:	00060493          	mv	s1,a2
    83002ac0:	e95ff06f          	j	83002954 <_vfprintf_r+0x3b8>
    83002ac4:	52081263          	bnez	a6,83002fe8 <_vfprintf_r+0xa4c>
    83002ac8:	0106f793          	andi	a5,a3,16
    83002acc:	008b8713          	addi	a4,s7,8
    83002ad0:	ea0796e3          	bnez	a5,8300297c <_vfprintf_r+0x3e0>
    83002ad4:	0406f793          	andi	a5,a3,64
    83002ad8:	000bac03          	lw	s8,0(s7)
    83002adc:	44078263          	beqz	a5,83002f20 <_vfprintf_r+0x984>
    83002ae0:	030c1c13          	slli	s8,s8,0x30
    83002ae4:	030c5c13          	srli	s8,s8,0x30
    83002ae8:	00070b93          	mv	s7,a4
    83002aec:	00000793          	li	a5,0
    83002af0:	e99ff06f          	j	83002988 <_vfprintf_r+0x3ec>
    83002af4:	02813783          	ld	a5,40(sp)
    83002af8:	0026e693          	ori	a3,a3,2
    83002afc:	000bbc03          	ld	s8,0(s7)
    83002b00:	04f11023          	sh	a5,64(sp)
    83002b04:	00005797          	auipc	a5,0x5
    83002b08:	76c78793          	addi	a5,a5,1900 # 83008270 <_ZL9cmd_table+0x118>
    83002b0c:	00f13823          	sd	a5,16(sp)
    83002b10:	0006869b          	sext.w	a3,a3
    83002b14:	008b8b93          	addi	s7,s7,8
    83002b18:	00200793          	li	a5,2
    83002b1c:	e6dff06f          	j	83002988 <_vfprintf_r+0x3ec>
    83002b20:	000bb483          	ld	s1,0(s7)
    83002b24:	02010fa3          	sb	zero,63(sp)
    83002b28:	008b8b93          	addi	s7,s7,8
    83002b2c:	42048263          	beqz	s1,83002f50 <_vfprintf_r+0x9b4>
    83002b30:	fff00793          	li	a5,-1
    83002b34:	00d13c23          	sd	a3,24(sp)
    83002b38:	42f40a63          	beq	s0,a5,83002f6c <_vfprintf_r+0x9d0>
    83002b3c:	00040613          	mv	a2,s0
    83002b40:	00000593          	li	a1,0
    83002b44:	00048513          	mv	a0,s1
    83002b48:	00003097          	auipc	ra,0x3
    83002b4c:	820080e7          	jalr	-2016(ra) # 83005368 <memchr>
    83002b50:	01813683          	ld	a3,24(sp)
    83002b54:	03f14703          	lbu	a4,63(sp)
    83002b58:	44050c63          	beqz	a0,83002fb0 <_vfprintf_r+0xa14>
    83002b5c:	40950cbb          	subw	s9,a0,s1
    83002b60:	00068a93          	mv	s5,a3
    83002b64:	00000413          	li	s0,0
    83002b68:	dedff06f          	j	83002954 <_vfprintf_r+0x3b8>
    83002b6c:	44081e63          	bnez	a6,83002fc8 <_vfprintf_r+0xa2c>
    83002b70:	0106f793          	andi	a5,a3,16
    83002b74:	008b8713          	addi	a4,s7,8
    83002b78:	e4079ee3          	bnez	a5,830029d4 <_vfprintf_r+0x438>
    83002b7c:	0406f793          	andi	a5,a3,64
    83002b80:	000bac03          	lw	s8,0(s7)
    83002b84:	36078e63          	beqz	a5,83002f00 <_vfprintf_r+0x964>
    83002b88:	030c1c13          	slli	s8,s8,0x30
    83002b8c:	030c5c13          	srli	s8,s8,0x30
    83002b90:	00070b93          	mv	s7,a4
    83002b94:	00100793          	li	a5,1
    83002b98:	df1ff06f          	j	83002988 <_vfprintf_r+0x3ec>
    83002b9c:	42081e63          	bnez	a6,83002fd8 <_vfprintf_r+0xa3c>
    83002ba0:	00005797          	auipc	a5,0x5
    83002ba4:	6b878793          	addi	a5,a5,1720 # 83008258 <_ZL9cmd_table+0x100>
    83002ba8:	00f13823          	sd	a5,16(sp)
    83002bac:	0106f793          	andi	a5,a3,16
    83002bb0:	008b8613          	addi	a2,s7,8
    83002bb4:	08078263          	beqz	a5,83002c38 <_vfprintf_r+0x69c>
    83002bb8:	000bbc03          	ld	s8,0(s7)
    83002bbc:	0016f793          	andi	a5,a3,1
    83002bc0:	20078663          	beqz	a5,83002dcc <_vfprintf_r+0x830>
    83002bc4:	200c0463          	beqz	s8,83002dcc <_vfprintf_r+0x830>
    83002bc8:	03000793          	li	a5,48
    83002bcc:	0026e693          	ori	a3,a3,2
    83002bd0:	04f10023          	sb	a5,64(sp)
    83002bd4:	04e100a3          	sb	a4,65(sp)
    83002bd8:	0006869b          	sext.w	a3,a3
    83002bdc:	00060b93          	mv	s7,a2
    83002be0:	00200793          	li	a5,2
    83002be4:	da5ff06f          	j	83002988 <_vfprintf_r+0x3ec>
    83002be8:	3e081463          	bnez	a6,83002fd0 <_vfprintf_r+0xa34>
    83002bec:	0106f793          	andi	a5,a3,16
    83002bf0:	000bb703          	ld	a4,0(s7)
    83002bf4:	008b8b93          	addi	s7,s7,8
    83002bf8:	32078e63          	beqz	a5,83002f34 <_vfprintf_r+0x998>
    83002bfc:	00813783          	ld	a5,8(sp)
    83002c00:	00f73023          	sd	a5,0(a4)
    83002c04:	a15ff06f          	j	83002618 <_vfprintf_r+0x7c>
    83002c08:	c20898e3          	bnez	a7,83002838 <_vfprintf_r+0x29c>
    83002c0c:	00100813          	li	a6,1
    83002c10:	02000893          	li	a7,32
    83002c14:	00090793          	mv	a5,s2
    83002c18:	a85ff06f          	j	8300269c <_vfprintf_r+0x100>
    83002c1c:	3a081263          	bnez	a6,83002fc0 <_vfprintf_r+0xa24>
    83002c20:	00005797          	auipc	a5,0x5
    83002c24:	65078793          	addi	a5,a5,1616 # 83008270 <_ZL9cmd_table+0x118>
    83002c28:	00f13823          	sd	a5,16(sp)
    83002c2c:	0106f793          	andi	a5,a3,16
    83002c30:	008b8613          	addi	a2,s7,8
    83002c34:	f80792e3          	bnez	a5,83002bb8 <_vfprintf_r+0x61c>
    83002c38:	0406f793          	andi	a5,a3,64
    83002c3c:	000bac03          	lw	s8,0(s7)
    83002c40:	2c078a63          	beqz	a5,83002f14 <_vfprintf_r+0x978>
    83002c44:	030c1c13          	slli	s8,s8,0x30
    83002c48:	030c5c13          	srli	s8,s8,0x30
    83002c4c:	f71ff06f          	j	83002bbc <_vfprintf_r+0x620>
    83002c50:	0406e693          	ori	a3,a3,64
    83002c54:	0006869b          	sext.w	a3,a3
    83002c58:	00090793          	mv	a5,s2
    83002c5c:	a41ff06f          	j	8300269c <_vfprintf_r+0x100>
    83002c60:	000ba783          	lw	a5,0(s7)
    83002c64:	02010fa3          	sb	zero,63(sp)
    83002c68:	008b8b93          	addi	s7,s7,8
    83002c6c:	04f10423          	sb	a5,72(sp)
    83002c70:	00100c13          	li	s8,1
    83002c74:	00100c93          	li	s9,1
    83002c78:	04810493          	addi	s1,sp,72
    83002c7c:	aa5ff06f          	j	83002720 <_vfprintf_r+0x184>
    83002c80:	0016e693          	ori	a3,a3,1
    83002c84:	0006869b          	sext.w	a3,a3
    83002c88:	00090793          	mv	a5,s2
    83002c8c:	a11ff06f          	j	8300269c <_vfprintf_r+0x100>
    83002c90:	00100813          	li	a6,1
    83002c94:	02b00893          	li	a7,43
    83002c98:	00090793          	mv	a5,s2
    83002c9c:	a01ff06f          	j	8300269c <_vfprintf_r+0x100>
    83002ca0:	000d8693          	mv	a3,s11
    83002ca4:	00005617          	auipc	a2,0x5
    83002ca8:	76460613          	addi	a2,a2,1892 # 83008408 <zeroes.0>
    83002cac:	00098593          	mv	a1,s3
    83002cb0:	000a0513          	mv	a0,s4
    83002cb4:	00000097          	auipc	ra,0x0
    83002cb8:	37c080e7          	jalr	892(ra) # 83003030 <__sfputs_r>
    83002cbc:	fff00793          	li	a5,-1
    83002cc0:	aef504e3          	beq	a0,a5,830027a8 <_vfprintf_r+0x20c>
    83002cc4:	000c8693          	mv	a3,s9
    83002cc8:	00048613          	mv	a2,s1
    83002ccc:	00098593          	mv	a1,s3
    83002cd0:	000a0513          	mv	a0,s4
    83002cd4:	00000097          	auipc	ra,0x0
    83002cd8:	35c080e7          	jalr	860(ra) # 83003030 <__sfputs_r>
    83002cdc:	fff00793          	li	a5,-1
    83002ce0:	acf504e3          	beq	a0,a5,830027a8 <_vfprintf_r+0x20c>
    83002ce4:	004afa93          	andi	s5,s5,4
    83002ce8:	000a8663          	beqz	s5,83002cf4 <_vfprintf_r+0x758>
    83002cec:	418b043b          	subw	s0,s6,s8
    83002cf0:	0e804463          	bgtz	s0,83002dd8 <_vfprintf_r+0x83c>
    83002cf4:	000b0793          	mv	a5,s6
    83002cf8:	018b5463          	bge	s6,s8,83002d00 <_vfprintf_r+0x764>
    83002cfc:	000c0793          	mv	a5,s8
    83002d00:	00813703          	ld	a4,8(sp)
    83002d04:	00e787bb          	addw	a5,a5,a4
    83002d08:	00f13423          	sd	a5,8(sp)
    83002d0c:	90dff06f          	j	83002618 <_vfprintf_r+0x7c>
    83002d10:	00100693          	li	a3,1
    83002d14:	28d78a63          	beq	a5,a3,83002fa8 <_vfprintf_r+0xa0c>
    83002d18:	00200693          	li	a3,2
    83002d1c:	26d79e63          	bne	a5,a3,83002f98 <_vfprintf_r+0x9fc>
    83002d20:	000a8693          	mv	a3,s5
    83002d24:	07010493          	addi	s1,sp,112
    83002d28:	01013603          	ld	a2,16(sp)
    83002d2c:	00fc7793          	andi	a5,s8,15
    83002d30:	fff48493          	addi	s1,s1,-1
    83002d34:	00f607b3          	add	a5,a2,a5
    83002d38:	0007c783          	lbu	a5,0(a5)
    83002d3c:	004c5c13          	srli	s8,s8,0x4
    83002d40:	00f48023          	sb	a5,0(s1)
    83002d44:	fe0c12e3          	bnez	s8,83002d28 <_vfprintf_r+0x78c>
    83002d48:	07010793          	addi	a5,sp,112
    83002d4c:	40978cbb          	subw	s9,a5,s1
    83002d50:	00068a93          	mv	s5,a3
    83002d54:	c01ff06f          	j	83002954 <_vfprintf_r+0x3b8>
    83002d58:	00100613          	li	a2,1
    83002d5c:	000a8693          	mv	a3,s5
    83002d60:	d0c798e3          	bne	a5,a2,83002a70 <_vfprintf_r+0x4d4>
    83002d64:	00900793          	li	a5,9
    83002d68:	1387e663          	bltu	a5,s8,83002e94 <_vfprintf_r+0x8f8>
    83002d6c:	030c0c1b          	addiw	s8,s8,48
    83002d70:	078107a3          	sb	s8,111(sp)
    83002d74:	00068a93          	mv	s5,a3
    83002d78:	00100c93          	li	s9,1
    83002d7c:	06f10493          	addi	s1,sp,111
    83002d80:	bd5ff06f          	j	83002954 <_vfprintf_r+0x3b8>
    83002d84:	01000713          	li	a4,16
    83002d88:	09a75a63          	bge	a4,s10,83002e1c <_vfprintf_r+0x880>
    83002d8c:	00005617          	auipc	a2,0x5
    83002d90:	66c60613          	addi	a2,a2,1644 # 830083f8 <blanks.1>
    83002d94:	0180006f          	j	83002dac <_vfprintf_r+0x810>
    83002d98:	ff0d0d1b          	addiw	s10,s10,-16
    83002d9c:	01000713          	li	a4,16
    83002da0:	00005617          	auipc	a2,0x5
    83002da4:	65860613          	addi	a2,a2,1624 # 830083f8 <blanks.1>
    83002da8:	07a75a63          	bge	a4,s10,83002e1c <_vfprintf_r+0x880>
    83002dac:	01000693          	li	a3,16
    83002db0:	00098593          	mv	a1,s3
    83002db4:	000a0513          	mv	a0,s4
    83002db8:	00000097          	auipc	ra,0x0
    83002dbc:	278080e7          	jalr	632(ra) # 83003030 <__sfputs_r>
    83002dc0:	fff00793          	li	a5,-1
    83002dc4:	fcf51ae3          	bne	a0,a5,83002d98 <_vfprintf_r+0x7fc>
    83002dc8:	9e1ff06f          	j	830027a8 <_vfprintf_r+0x20c>
    83002dcc:	00060b93          	mv	s7,a2
    83002dd0:	00200793          	li	a5,2
    83002dd4:	bb5ff06f          	j	83002988 <_vfprintf_r+0x3ec>
    83002dd8:	01000793          	li	a5,16
    83002ddc:	0887d863          	bge	a5,s0,83002e6c <_vfprintf_r+0x8d0>
    83002de0:	00005a97          	auipc	s5,0x5
    83002de4:	618a8a93          	addi	s5,s5,1560 # 830083f8 <blanks.1>
    83002de8:	fff00493          	li	s1,-1
    83002dec:	0100006f          	j	83002dfc <_vfprintf_r+0x860>
    83002df0:	ff04041b          	addiw	s0,s0,-16
    83002df4:	01000793          	li	a5,16
    83002df8:	0687da63          	bge	a5,s0,83002e6c <_vfprintf_r+0x8d0>
    83002dfc:	01000693          	li	a3,16
    83002e00:	000a8613          	mv	a2,s5
    83002e04:	00098593          	mv	a1,s3
    83002e08:	000a0513          	mv	a0,s4
    83002e0c:	00000097          	auipc	ra,0x0
    83002e10:	224080e7          	jalr	548(ra) # 83003030 <__sfputs_r>
    83002e14:	fc951ee3          	bne	a0,s1,83002df0 <_vfprintf_r+0x854>
    83002e18:	991ff06f          	j	830027a8 <_vfprintf_r+0x20c>
    83002e1c:	000d0693          	mv	a3,s10
    83002e20:	00005617          	auipc	a2,0x5
    83002e24:	5d860613          	addi	a2,a2,1496 # 830083f8 <blanks.1>
    83002e28:	00098593          	mv	a1,s3
    83002e2c:	000a0513          	mv	a0,s4
    83002e30:	00000097          	auipc	ra,0x0
    83002e34:	200080e7          	jalr	512(ra) # 83003030 <__sfputs_r>
    83002e38:	fff00793          	li	a5,-1
    83002e3c:	90f516e3          	bne	a0,a5,83002748 <_vfprintf_r+0x1ac>
    83002e40:	969ff06f          	j	830027a8 <_vfprintf_r+0x20c>
    83002e44:	000d0693          	mv	a3,s10
    83002e48:	00005617          	auipc	a2,0x5
    83002e4c:	5c060613          	addi	a2,a2,1472 # 83008408 <zeroes.0>
    83002e50:	00098593          	mv	a1,s3
    83002e54:	000a0513          	mv	a0,s4
    83002e58:	00000097          	auipc	ra,0x0
    83002e5c:	1d8080e7          	jalr	472(ra) # 83003030 <__sfputs_r>
    83002e60:	fff00793          	li	a5,-1
    83002e64:	8ef51ee3          	bne	a0,a5,83002760 <_vfprintf_r+0x1c4>
    83002e68:	941ff06f          	j	830027a8 <_vfprintf_r+0x20c>
    83002e6c:	00040693          	mv	a3,s0
    83002e70:	00005617          	auipc	a2,0x5
    83002e74:	58860613          	addi	a2,a2,1416 # 830083f8 <blanks.1>
    83002e78:	00098593          	mv	a1,s3
    83002e7c:	000a0513          	mv	a0,s4
    83002e80:	00000097          	auipc	ra,0x0
    83002e84:	1b0080e7          	jalr	432(ra) # 83003030 <__sfputs_r>
    83002e88:	fff00793          	li	a5,-1
    83002e8c:	e6f514e3          	bne	a0,a5,83002cf4 <_vfprintf_r+0x758>
    83002e90:	919ff06f          	j	830027a8 <_vfprintf_r+0x20c>
    83002e94:	07010493          	addi	s1,sp,112
    83002e98:	00900a93          	li	s5,9
    83002e9c:	00a00593          	li	a1,10
    83002ea0:	000c0513          	mv	a0,s8
    83002ea4:	02e13023          	sd	a4,32(sp)
    83002ea8:	00d13c23          	sd	a3,24(sp)
    83002eac:	00004097          	auipc	ra,0x4
    83002eb0:	63c080e7          	jalr	1596(ra) # 830074e8 <__umoddi3>
    83002eb4:	0305079b          	addiw	a5,a0,48
    83002eb8:	fef48fa3          	sb	a5,-1(s1)
    83002ebc:	000c0513          	mv	a0,s8
    83002ec0:	00a00593          	li	a1,10
    83002ec4:	00004097          	auipc	ra,0x4
    83002ec8:	5dc080e7          	jalr	1500(ra) # 830074a0 <__udivdi3>
    83002ecc:	000c0c93          	mv	s9,s8
    83002ed0:	01813683          	ld	a3,24(sp)
    83002ed4:	02013703          	ld	a4,32(sp)
    83002ed8:	fff48493          	addi	s1,s1,-1
    83002edc:	00050c13          	mv	s8,a0
    83002ee0:	fb9aeee3          	bltu	s5,s9,83002e9c <_vfprintf_r+0x900>
    83002ee4:	07010793          	addi	a5,sp,112
    83002ee8:	40978cbb          	subw	s9,a5,s1
    83002eec:	00068a93          	mv	s5,a3
    83002ef0:	a65ff06f          	j	83002954 <_vfprintf_r+0x3b8>
    83002ef4:	000c0793          	mv	a5,s8
    83002ef8:	00070b93          	mv	s7,a4
    83002efc:	a2dff06f          	j	83002928 <_vfprintf_r+0x38c>
    83002f00:	020c1c13          	slli	s8,s8,0x20
    83002f04:	020c5c13          	srli	s8,s8,0x20
    83002f08:	00070b93          	mv	s7,a4
    83002f0c:	00100793          	li	a5,1
    83002f10:	a79ff06f          	j	83002988 <_vfprintf_r+0x3ec>
    83002f14:	020c1c13          	slli	s8,s8,0x20
    83002f18:	020c5c13          	srli	s8,s8,0x20
    83002f1c:	ca1ff06f          	j	83002bbc <_vfprintf_r+0x620>
    83002f20:	020c1c13          	slli	s8,s8,0x20
    83002f24:	020c5c13          	srli	s8,s8,0x20
    83002f28:	00070b93          	mv	s7,a4
    83002f2c:	00000793          	li	a5,0
    83002f30:	a59ff06f          	j	83002988 <_vfprintf_r+0x3ec>
    83002f34:	0406f693          	andi	a3,a3,64
    83002f38:	00813783          	ld	a5,8(sp)
    83002f3c:	04068a63          	beqz	a3,83002f90 <_vfprintf_r+0x9f4>
    83002f40:	00f71023          	sh	a5,0(a4)
    83002f44:	ed4ff06f          	j	83002618 <_vfprintf_r+0x7c>
    83002f48:	000a8693          	mv	a3,s5
    83002f4c:	e19ff06f          	j	83002d64 <_vfprintf_r+0x7c8>
    83002f50:	00600793          	li	a5,6
    83002f54:	00040c9b          	sext.w	s9,s0
    83002f58:	0487e463          	bltu	a5,s0,83002fa0 <_vfprintf_r+0xa04>
    83002f5c:	000c8c13          	mv	s8,s9
    83002f60:	00005497          	auipc	s1,0x5
    83002f64:	32848493          	addi	s1,s1,808 # 83008288 <_ZL9cmd_table+0x130>
    83002f68:	fb8ff06f          	j	83002720 <_vfprintf_r+0x184>
    83002f6c:	00048513          	mv	a0,s1
    83002f70:	fffff097          	auipc	ra,0xfffff
    83002f74:	1e4080e7          	jalr	484(ra) # 83002154 <strlen>
    83002f78:	01813683          	ld	a3,24(sp)
    83002f7c:	03f14703          	lbu	a4,63(sp)
    83002f80:	00050c9b          	sext.w	s9,a0
    83002f84:	00068a93          	mv	s5,a3
    83002f88:	00000413          	li	s0,0
    83002f8c:	9c9ff06f          	j	83002954 <_vfprintf_r+0x3b8>
    83002f90:	00f72023          	sw	a5,0(a4)
    83002f94:	e84ff06f          	j	83002618 <_vfprintf_r+0x7c>
    83002f98:	000a8693          	mv	a3,s5
    83002f9c:	addff06f          	j	83002a78 <_vfprintf_r+0x4dc>
    83002fa0:	00600c93          	li	s9,6
    83002fa4:	fb9ff06f          	j	83002f5c <_vfprintf_r+0x9c0>
    83002fa8:	000a8693          	mv	a3,s5
    83002fac:	dc1ff06f          	j	83002d6c <_vfprintf_r+0x7d0>
    83002fb0:	00040c93          	mv	s9,s0
    83002fb4:	00068a93          	mv	s5,a3
    83002fb8:	00000413          	li	s0,0
    83002fbc:	999ff06f          	j	83002954 <_vfprintf_r+0x3b8>
    83002fc0:	03110fa3          	sb	a7,63(sp)
    83002fc4:	c5dff06f          	j	83002c20 <_vfprintf_r+0x684>
    83002fc8:	03110fa3          	sb	a7,63(sp)
    83002fcc:	ba5ff06f          	j	83002b70 <_vfprintf_r+0x5d4>
    83002fd0:	03110fa3          	sb	a7,63(sp)
    83002fd4:	c19ff06f          	j	83002bec <_vfprintf_r+0x650>
    83002fd8:	03110fa3          	sb	a7,63(sp)
    83002fdc:	bc5ff06f          	j	83002ba0 <_vfprintf_r+0x604>
    83002fe0:	03110fa3          	sb	a7,63(sp)
    83002fe4:	91dff06f          	j	83002900 <_vfprintf_r+0x364>
    83002fe8:	03110fa3          	sb	a7,63(sp)
    83002fec:	addff06f          	j	83002ac8 <_vfprintf_r+0x52c>
    83002ff0:	03110fa3          	sb	a7,63(sp)
    83002ff4:	a41ff06f          	j	83002a34 <_vfprintf_r+0x498>
    83002ff8:	000ba783          	lw	a5,0(s7)
    83002ffc:	008b8b93          	addi	s7,s7,8
    83003000:	0007841b          	sext.w	s0,a5
    83003004:	8207dae3          	bgez	a5,83002838 <_vfprintf_r+0x29c>
    83003008:	fff00413          	li	s0,-1
    8300300c:	00090793          	mv	a5,s2
    83003010:	e8cff06f          	j	8300269c <_vfprintf_r+0x100>

0000000083003014 <vfprintf>:
    83003014:	00060693          	mv	a3,a2
    83003018:	00058613          	mv	a2,a1
    8300301c:	00050593          	mv	a1,a0
    83003020:	00007517          	auipc	a0,0x7
    83003024:	62053503          	ld	a0,1568(a0) # 8300a640 <_impure_ptr>
    83003028:	fffff317          	auipc	t1,0xfffff
    8300302c:	57430067          	jr	1396(t1) # 8300259c <_vfprintf_r>

0000000083003030 <__sfputs_r>:
    83003030:	08068e63          	beqz	a3,830030cc <__sfputs_r+0x9c>
    83003034:	fd010113          	addi	sp,sp,-48
    83003038:	02813023          	sd	s0,32(sp)
    8300303c:	00913c23          	sd	s1,24(sp)
    83003040:	01213823          	sd	s2,16(sp)
    83003044:	01313423          	sd	s3,8(sp)
    83003048:	01413023          	sd	s4,0(sp)
    8300304c:	02113423          	sd	ra,40(sp)
    83003050:	00050913          	mv	s2,a0
    83003054:	00058993          	mv	s3,a1
    83003058:	00060413          	mv	s0,a2
    8300305c:	00d604b3          	add	s1,a2,a3
    83003060:	fff00a13          	li	s4,-1
    83003064:	0080006f          	j	8300306c <__sfputs_r+0x3c>
    83003068:	04940063          	beq	s0,s1,830030a8 <__sfputs_r+0x78>
    8300306c:	00044583          	lbu	a1,0(s0)
    83003070:	00098613          	mv	a2,s3
    83003074:	00090513          	mv	a0,s2
    83003078:	00001097          	auipc	ra,0x1
    8300307c:	d0c080e7          	jalr	-756(ra) # 83003d84 <_fputc_r>
    83003080:	00140413          	addi	s0,s0,1
    83003084:	ff4512e3          	bne	a0,s4,83003068 <__sfputs_r+0x38>
    83003088:	02813083          	ld	ra,40(sp)
    8300308c:	02013403          	ld	s0,32(sp)
    83003090:	01813483          	ld	s1,24(sp)
    83003094:	01013903          	ld	s2,16(sp)
    83003098:	00813983          	ld	s3,8(sp)
    8300309c:	00013a03          	ld	s4,0(sp)
    830030a0:	03010113          	addi	sp,sp,48
    830030a4:	00008067          	ret
    830030a8:	02813083          	ld	ra,40(sp)
    830030ac:	02013403          	ld	s0,32(sp)
    830030b0:	01813483          	ld	s1,24(sp)
    830030b4:	01013903          	ld	s2,16(sp)
    830030b8:	00813983          	ld	s3,8(sp)
    830030bc:	00013a03          	ld	s4,0(sp)
    830030c0:	00000513          	li	a0,0
    830030c4:	03010113          	addi	sp,sp,48
    830030c8:	00008067          	ret
    830030cc:	00000513          	li	a0,0
    830030d0:	00008067          	ret

00000000830030d4 <__sprint_r>:
    830030d4:	01063783          	ld	a5,16(a2)
    830030d8:	ff010113          	addi	sp,sp,-16
    830030dc:	00813023          	sd	s0,0(sp)
    830030e0:	00113423          	sd	ra,8(sp)
    830030e4:	00060413          	mv	s0,a2
    830030e8:	00079e63          	bnez	a5,83003104 <__sprint_r+0x30>
    830030ec:	00813083          	ld	ra,8(sp)
    830030f0:	00042423          	sw	zero,8(s0)
    830030f4:	00013403          	ld	s0,0(sp)
    830030f8:	00000513          	li	a0,0
    830030fc:	01010113          	addi	sp,sp,16
    83003100:	00008067          	ret
    83003104:	00002097          	auipc	ra,0x2
    83003108:	334080e7          	jalr	820(ra) # 83005438 <__sfvwrite_r>
    8300310c:	00813083          	ld	ra,8(sp)
    83003110:	00043823          	sd	zero,16(s0)
    83003114:	00042423          	sw	zero,8(s0)
    83003118:	00013403          	ld	s0,0(sp)
    8300311c:	01010113          	addi	sp,sp,16
    83003120:	00008067          	ret

0000000083003124 <_vfiprintf_r>:
    83003124:	f2010113          	addi	sp,sp,-224
    83003128:	0c813823          	sd	s0,208(sp)
    8300312c:	0c913423          	sd	s1,200(sp)
    83003130:	0b513423          	sd	s5,168(sp)
    83003134:	0c113c23          	sd	ra,216(sp)
    83003138:	0d213023          	sd	s2,192(sp)
    8300313c:	0b313c23          	sd	s3,184(sp)
    83003140:	0b413823          	sd	s4,176(sp)
    83003144:	0b613023          	sd	s6,160(sp)
    83003148:	09713c23          	sd	s7,152(sp)
    8300314c:	09813823          	sd	s8,144(sp)
    83003150:	09913423          	sd	s9,136(sp)
    83003154:	09a13023          	sd	s10,128(sp)
    83003158:	07b13c23          	sd	s11,120(sp)
    8300315c:	00d13c23          	sd	a3,24(sp)
    83003160:	02013c23          	sd	zero,56(sp)
    83003164:	00050493          	mv	s1,a0
    83003168:	00058413          	mv	s0,a1
    8300316c:	00060a93          	mv	s5,a2
    83003170:	00050663          	beqz	a0,8300317c <_vfiprintf_r+0x58>
    83003174:	05052783          	lw	a5,80(a0)
    83003178:	24078e63          	beqz	a5,830033d4 <_vfiprintf_r+0x2b0>
    8300317c:	01045783          	lhu	a5,16(s0)
    83003180:	0087f793          	andi	a5,a5,8
    83003184:	0a078e63          	beqz	a5,83003240 <_vfiprintf_r+0x11c>
    83003188:	01843783          	ld	a5,24(s0)
    8300318c:	0a078a63          	beqz	a5,83003240 <_vfiprintf_r+0x11c>
    83003190:	02013423          	sd	zero,40(sp)
    83003194:	02013023          	sd	zero,32(sp)
    83003198:	000ac583          	lbu	a1,0(s5)
    8300319c:	04058c63          	beqz	a1,830031f4 <_vfiprintf_r+0xd0>
    830031a0:	000a8913          	mv	s2,s5
    830031a4:	00058793          	mv	a5,a1
    830031a8:	02500713          	li	a4,37
    830031ac:	0ae78a63          	beq	a5,a4,83003260 <_vfiprintf_r+0x13c>
    830031b0:	00194783          	lbu	a5,1(s2)
    830031b4:	00190913          	addi	s2,s2,1
    830031b8:	fe079ae3          	bnez	a5,830031ac <_vfiprintf_r+0x88>
    830031bc:	415909bb          	subw	s3,s2,s5
    830031c0:	02098a63          	beqz	s3,830031f4 <_vfiprintf_r+0xd0>
    830031c4:	00000b13          	li	s6,0
    830031c8:	fff00a13          	li	s4,-1
    830031cc:	0140006f          	j	830031e0 <_vfiprintf_r+0xbc>
    830031d0:	001b0b13          	addi	s6,s6,1
    830031d4:	1f3b7663          	bgeu	s6,s3,830033c0 <_vfiprintf_r+0x29c>
    830031d8:	016a87b3          	add	a5,s5,s6
    830031dc:	0007c583          	lbu	a1,0(a5)
    830031e0:	00040613          	mv	a2,s0
    830031e4:	00048513          	mv	a0,s1
    830031e8:	00001097          	auipc	ra,0x1
    830031ec:	b9c080e7          	jalr	-1124(ra) # 83003d84 <_fputc_r>
    830031f0:	ff4510e3          	bne	a0,s4,830031d0 <_vfiprintf_r+0xac>
    830031f4:	01045783          	lhu	a5,16(s0)
    830031f8:	0407f793          	andi	a5,a5,64
    830031fc:	04079c63          	bnez	a5,83003254 <_vfiprintf_r+0x130>
    83003200:	0d813083          	ld	ra,216(sp)
    83003204:	0d013403          	ld	s0,208(sp)
    83003208:	02013503          	ld	a0,32(sp)
    8300320c:	0c813483          	ld	s1,200(sp)
    83003210:	0c013903          	ld	s2,192(sp)
    83003214:	0b813983          	ld	s3,184(sp)
    83003218:	0b013a03          	ld	s4,176(sp)
    8300321c:	0a813a83          	ld	s5,168(sp)
    83003220:	0a013b03          	ld	s6,160(sp)
    83003224:	09813b83          	ld	s7,152(sp)
    83003228:	09013c03          	ld	s8,144(sp)
    8300322c:	08813c83          	ld	s9,136(sp)
    83003230:	08013d03          	ld	s10,128(sp)
    83003234:	07813d83          	ld	s11,120(sp)
    83003238:	0e010113          	addi	sp,sp,224
    8300323c:	00008067          	ret
    83003240:	00040593          	mv	a1,s0
    83003244:	00048513          	mv	a0,s1
    83003248:	00001097          	auipc	ra,0x1
    8300324c:	ff8080e7          	jalr	-8(ra) # 83004240 <__swsetup_r>
    83003250:	f40500e3          	beqz	a0,83003190 <_vfiprintf_r+0x6c>
    83003254:	fff00793          	li	a5,-1
    83003258:	02f13023          	sd	a5,32(sp)
    8300325c:	fa5ff06f          	j	83003200 <_vfiprintf_r+0xdc>
    83003260:	415909bb          	subw	s3,s2,s5
    83003264:	f60990e3          	bnez	s3,830031c4 <_vfiprintf_r+0xa0>
    83003268:	00094783          	lbu	a5,0(s2)
    8300326c:	f80784e3          	beqz	a5,830031f4 <_vfiprintf_r+0xd0>
    83003270:	00190913          	addi	s2,s2,1
    83003274:	00000c13          	li	s8,0
    83003278:	fff00a13          	li	s4,-1
    8300327c:	00000d13          	li	s10,0
    83003280:	00000b13          	li	s6,0
    83003284:	05800613          	li	a2,88
    83003288:	02a00593          	li	a1,42
    8300328c:	00094703          	lbu	a4,0(s2)
    83003290:	00190a93          	addi	s5,s2,1
    83003294:	fe07079b          	addiw	a5,a4,-32
    83003298:	0007869b          	sext.w	a3,a5
    8300329c:	06d66063          	bltu	a2,a3,830032fc <_vfiprintf_r+0x1d8>
    830032a0:	02079693          	slli	a3,a5,0x20
    830032a4:	01e6d793          	srli	a5,a3,0x1e
    830032a8:	00005697          	auipc	a3,0x5
    830032ac:	17068693          	addi	a3,a3,368 # 83008418 <zeroes.0+0x10>
    830032b0:	00d787b3          	add	a5,a5,a3
    830032b4:	0007a783          	lw	a5,0(a5)
    830032b8:	00d787b3          	add	a5,a5,a3
    830032bc:	00078067          	jr	a5
    830032c0:	00000d13          	li	s10,0
    830032c4:	000ac683          	lbu	a3,0(s5)
    830032c8:	002d179b          	slliw	a5,s10,0x2
    830032cc:	01a787bb          	addw	a5,a5,s10
    830032d0:	fd07071b          	addiw	a4,a4,-48
    830032d4:	0017979b          	slliw	a5,a5,0x1
    830032d8:	00f70d3b          	addw	s10,a4,a5
    830032dc:	fd06851b          	addiw	a0,a3,-48
    830032e0:	00900793          	li	a5,9
    830032e4:	001a8a93          	addi	s5,s5,1
    830032e8:	0006871b          	sext.w	a4,a3
    830032ec:	fca7fce3          	bgeu	a5,a0,830032c4 <_vfiprintf_r+0x1a0>
    830032f0:	fe07079b          	addiw	a5,a4,-32
    830032f4:	0007869b          	sext.w	a3,a5
    830032f8:	fad674e3          	bgeu	a2,a3,830032a0 <_vfiprintf_r+0x17c>
    830032fc:	ee070ce3          	beqz	a4,830031f4 <_vfiprintf_r+0xd0>
    83003300:	00100793          	li	a5,1
    83003304:	04e10423          	sb	a4,72(sp)
    83003308:	00f13023          	sd	a5,0(sp)
    8300330c:	00f13823          	sd	a5,16(sp)
    83003310:	04810913          	addi	s2,sp,72
    83003314:	01613423          	sd	s6,8(sp)
    83003318:	00000c13          	li	s8,0
    8300331c:	00000a13          	li	s4,0
    83003320:	00813783          	ld	a5,8(sp)
    83003324:	0027fd93          	andi	s11,a5,2
    83003328:	000d8863          	beqz	s11,83003338 <_vfiprintf_r+0x214>
    8300332c:	00013783          	ld	a5,0(sp)
    83003330:	0027879b          	addiw	a5,a5,2
    83003334:	00f13023          	sd	a5,0(sp)
    83003338:	00813783          	ld	a5,8(sp)
    8300333c:	0847f793          	andi	a5,a5,132
    83003340:	02f13823          	sd	a5,48(sp)
    83003344:	00079863          	bnez	a5,83003354 <_vfiprintf_r+0x230>
    83003348:	00013783          	ld	a5,0(sp)
    8300334c:	40fd0cbb          	subw	s9,s10,a5
    83003350:	19904063          	bgtz	s9,830034d0 <_vfiprintf_r+0x3ac>
    83003354:	0c0c1263          	bnez	s8,83003418 <_vfiprintf_r+0x2f4>
    83003358:	0e0d9063          	bnez	s11,83003438 <_vfiprintf_r+0x314>
    8300335c:	03013703          	ld	a4,48(sp)
    83003360:	08000793          	li	a5,128
    83003364:	10f70a63          	beq	a4,a5,83003478 <_vfiprintf_r+0x354>
    83003368:	01013783          	ld	a5,16(sp)
    8300336c:	40fa0a3b          	subw	s4,s4,a5
    83003370:	5f405e63          	blez	s4,8300396c <_vfiprintf_r+0x848>
    83003374:	01000793          	li	a5,16
    83003378:	5747d063          	bge	a5,s4,830038d8 <_vfiprintf_r+0x7b4>
    8300337c:	00005997          	auipc	s3,0x5
    83003380:	22498993          	addi	s3,s3,548 # 830085a0 <zeroes.0+0x10>
    83003384:	fff00b13          	li	s6,-1
    83003388:	01000c13          	li	s8,16
    8300338c:	00005c97          	auipc	s9,0x5
    83003390:	205c8c93          	addi	s9,s9,517 # 83008591 <zeroes.0+0x1>
    83003394:	03000593          	li	a1,48
    83003398:	0100006f          	j	830033a8 <_vfiprintf_r+0x284>
    8300339c:	53998a63          	beq	s3,s9,830038d0 <_vfiprintf_r+0x7ac>
    830033a0:	000cc583          	lbu	a1,0(s9)
    830033a4:	001c8c93          	addi	s9,s9,1
    830033a8:	00040613          	mv	a2,s0
    830033ac:	00048513          	mv	a0,s1
    830033b0:	00001097          	auipc	ra,0x1
    830033b4:	9d4080e7          	jalr	-1580(ra) # 83003d84 <_fputc_r>
    830033b8:	ff6512e3          	bne	a0,s6,8300339c <_vfiprintf_r+0x278>
    830033bc:	e39ff06f          	j	830031f4 <_vfiprintf_r+0xd0>
    830033c0:	02013703          	ld	a4,32(sp)
    830033c4:	00094783          	lbu	a5,0(s2)
    830033c8:	00e9873b          	addw	a4,s3,a4
    830033cc:	02e13023          	sd	a4,32(sp)
    830033d0:	e9dff06f          	j	8300326c <_vfiprintf_r+0x148>
    830033d4:	00001097          	auipc	ra,0x1
    830033d8:	e18080e7          	jalr	-488(ra) # 830041ec <__sinit>
    830033dc:	da1ff06f          	j	8300317c <_vfiprintf_r+0x58>
    830033e0:	010b6b13          	ori	s6,s6,16
    830033e4:	000b0b1b          	sext.w	s6,s6
    830033e8:	000a8913          	mv	s2,s5
    830033ec:	ea1ff06f          	j	8300328c <_vfiprintf_r+0x168>
    830033f0:	01813783          	ld	a5,24(sp)
    830033f4:	0007ad03          	lw	s10,0(a5)
    830033f8:	00878793          	addi	a5,a5,8
    830033fc:	00f13c23          	sd	a5,24(sp)
    83003400:	fe0d54e3          	bgez	s10,830033e8 <_vfiprintf_r+0x2c4>
    83003404:	41a00d3b          	negw	s10,s10
    83003408:	004b6b13          	ori	s6,s6,4
    8300340c:	000b0b1b          	sext.w	s6,s6
    83003410:	000a8913          	mv	s2,s5
    83003414:	e79ff06f          	j	8300328c <_vfiprintf_r+0x168>
    83003418:	00040613          	mv	a2,s0
    8300341c:	000c0593          	mv	a1,s8
    83003420:	00048513          	mv	a0,s1
    83003424:	00001097          	auipc	ra,0x1
    83003428:	960080e7          	jalr	-1696(ra) # 83003d84 <_fputc_r>
    8300342c:	fff00793          	li	a5,-1
    83003430:	dcf502e3          	beq	a0,a5,830031f4 <_vfiprintf_r+0xd0>
    83003434:	f20d84e3          	beqz	s11,8300335c <_vfiprintf_r+0x238>
    83003438:	00040613          	mv	a2,s0
    8300343c:	03000593          	li	a1,48
    83003440:	00048513          	mv	a0,s1
    83003444:	00001097          	auipc	ra,0x1
    83003448:	940080e7          	jalr	-1728(ra) # 83003d84 <_fputc_r>
    8300344c:	fff00993          	li	s3,-1
    83003450:	db3502e3          	beq	a0,s3,830031f4 <_vfiprintf_r+0xd0>
    83003454:	03813583          	ld	a1,56(sp)
    83003458:	00040613          	mv	a2,s0
    8300345c:	00048513          	mv	a0,s1
    83003460:	00001097          	auipc	ra,0x1
    83003464:	924080e7          	jalr	-1756(ra) # 83003d84 <_fputc_r>
    83003468:	d93506e3          	beq	a0,s3,830031f4 <_vfiprintf_r+0xd0>
    8300346c:	03013703          	ld	a4,48(sp)
    83003470:	08000793          	li	a5,128
    83003474:	eef71ae3          	bne	a4,a5,83003368 <_vfiprintf_r+0x244>
    83003478:	00013783          	ld	a5,0(sp)
    8300347c:	40fd0c3b          	subw	s8,s10,a5
    83003480:	ef8054e3          	blez	s8,83003368 <_vfiprintf_r+0x244>
    83003484:	01000793          	li	a5,16
    83003488:	5b87d463          	bge	a5,s8,83003a30 <_vfiprintf_r+0x90c>
    8300348c:	00005997          	auipc	s3,0x5
    83003490:	11498993          	addi	s3,s3,276 # 830085a0 <zeroes.0+0x10>
    83003494:	fff00b13          	li	s6,-1
    83003498:	01000c93          	li	s9,16
    8300349c:	00005d97          	auipc	s11,0x5
    830034a0:	0f5d8d93          	addi	s11,s11,245 # 83008591 <zeroes.0+0x1>
    830034a4:	03000593          	li	a1,48
    830034a8:	0100006f          	j	830034b8 <_vfiprintf_r+0x394>
    830034ac:	57b98e63          	beq	s3,s11,83003a28 <_vfiprintf_r+0x904>
    830034b0:	000dc583          	lbu	a1,0(s11)
    830034b4:	001d8d93          	addi	s11,s11,1
    830034b8:	00040613          	mv	a2,s0
    830034bc:	00048513          	mv	a0,s1
    830034c0:	00001097          	auipc	ra,0x1
    830034c4:	8c4080e7          	jalr	-1852(ra) # 83003d84 <_fputc_r>
    830034c8:	ff6512e3          	bne	a0,s6,830034ac <_vfiprintf_r+0x388>
    830034cc:	d29ff06f          	j	830031f4 <_vfiprintf_r+0xd0>
    830034d0:	01000793          	li	a5,16
    830034d4:	4597da63          	bge	a5,s9,83003928 <_vfiprintf_r+0x804>
    830034d8:	00005997          	auipc	s3,0x5
    830034dc:	0b898993          	addi	s3,s3,184 # 83008590 <zeroes.0>
    830034e0:	fff00b13          	li	s6,-1
    830034e4:	00005b97          	auipc	s7,0x5
    830034e8:	09db8b93          	addi	s7,s7,157 # 83008581 <blanks.1+0x1>
    830034ec:	02000593          	li	a1,32
    830034f0:	0100006f          	j	83003500 <_vfiprintf_r+0x3dc>
    830034f4:	43798463          	beq	s3,s7,8300391c <_vfiprintf_r+0x7f8>
    830034f8:	000bc583          	lbu	a1,0(s7)
    830034fc:	001b8b93          	addi	s7,s7,1
    83003500:	00040613          	mv	a2,s0
    83003504:	00048513          	mv	a0,s1
    83003508:	00001097          	auipc	ra,0x1
    8300350c:	87c080e7          	jalr	-1924(ra) # 83003d84 <_fputc_r>
    83003510:	ff6512e3          	bne	a0,s6,830034f4 <_vfiprintf_r+0x3d0>
    83003514:	ce1ff06f          	j	830031f4 <_vfiprintf_r+0xd0>
    83003518:	01813703          	ld	a4,24(sp)
    8300351c:	010b7793          	andi	a5,s6,16
    83003520:	00870713          	addi	a4,a4,8
    83003524:	2c079863          	bnez	a5,830037f4 <_vfiprintf_r+0x6d0>
    83003528:	01813683          	ld	a3,24(sp)
    8300352c:	040b7793          	andi	a5,s6,64
    83003530:	0006a983          	lw	s3,0(a3)
    83003534:	6a078263          	beqz	a5,83003bd8 <_vfiprintf_r+0xab4>
    83003538:	0109999b          	slliw	s3,s3,0x10
    8300353c:	4109d99b          	sraiw	s3,s3,0x10
    83003540:	00098793          	mv	a5,s3
    83003544:	00e13c23          	sd	a4,24(sp)
    83003548:	2c07c063          	bltz	a5,83003808 <_vfiprintf_r+0x6e4>
    8300354c:	fff00793          	li	a5,-1
    83003550:	52fa0863          	beq	s4,a5,83003a80 <_vfiprintf_r+0x95c>
    83003554:	f7fb7b13          	andi	s6,s6,-129
    83003558:	000b079b          	sext.w	a5,s6
    8300355c:	00f13423          	sd	a5,8(sp)
    83003560:	6a099663          	bnez	s3,83003c0c <_vfiprintf_r+0xae8>
    83003564:	700a1663          	bnez	s4,83003c70 <_vfiprintf_r+0xb4c>
    83003568:	00000a13          	li	s4,0
    8300356c:	00013823          	sd	zero,16(sp)
    83003570:	07010913          	addi	s2,sp,112
    83003574:	01013703          	ld	a4,16(sp)
    83003578:	00070793          	mv	a5,a4
    8300357c:	01475463          	bge	a4,s4,83003584 <_vfiprintf_r+0x460>
    83003580:	000a0793          	mv	a5,s4
    83003584:	0007871b          	sext.w	a4,a5
    83003588:	00e13023          	sd	a4,0(sp)
    8300358c:	d80c0ae3          	beqz	s8,83003320 <_vfiprintf_r+0x1fc>
    83003590:	0017879b          	addiw	a5,a5,1
    83003594:	00f13023          	sd	a5,0(sp)
    83003598:	d89ff06f          	j	83003320 <_vfiprintf_r+0x1fc>
    8300359c:	000ac703          	lbu	a4,0(s5)
    830035a0:	001a8a93          	addi	s5,s5,1
    830035a4:	6eb70263          	beq	a4,a1,83003c88 <_vfiprintf_r+0xb64>
    830035a8:	fd07069b          	addiw	a3,a4,-48
    830035ac:	00900793          	li	a5,9
    830035b0:	00000a13          	li	s4,0
    830035b4:	ced7e0e3          	bltu	a5,a3,83003294 <_vfiprintf_r+0x170>
    830035b8:	000ac703          	lbu	a4,0(s5)
    830035bc:	002a179b          	slliw	a5,s4,0x2
    830035c0:	014787bb          	addw	a5,a5,s4
    830035c4:	0017979b          	slliw	a5,a5,0x1
    830035c8:	00d78a3b          	addw	s4,a5,a3
    830035cc:	fd07069b          	addiw	a3,a4,-48
    830035d0:	00900793          	li	a5,9
    830035d4:	001a8a93          	addi	s5,s5,1
    830035d8:	fed7f0e3          	bgeu	a5,a3,830035b8 <_vfiprintf_r+0x494>
    830035dc:	cb9ff06f          	j	83003294 <_vfiprintf_r+0x170>
    830035e0:	01813783          	ld	a5,24(sp)
    830035e4:	010b6b13          	ori	s6,s6,16
    830035e8:	000b0b1b          	sext.w	s6,s6
    830035ec:	00878713          	addi	a4,a5,8
    830035f0:	01813783          	ld	a5,24(sp)
    830035f4:	00e13c23          	sd	a4,24(sp)
    830035f8:	0007b983          	ld	s3,0(a5)
    830035fc:	00000793          	li	a5,0
    83003600:	fff00713          	li	a4,-1
    83003604:	00000c13          	li	s8,0
    83003608:	20ea0a63          	beq	s4,a4,8300381c <_vfiprintf_r+0x6f8>
    8300360c:	f7fb7713          	andi	a4,s6,-129
    83003610:	0007071b          	sext.w	a4,a4
    83003614:	00e13423          	sd	a4,8(sp)
    83003618:	44099e63          	bnez	s3,83003a74 <_vfiprintf_r+0x950>
    8300361c:	3c0a1063          	bnez	s4,830039dc <_vfiprintf_r+0x8b8>
    83003620:	f40794e3          	bnez	a5,83003568 <_vfiprintf_r+0x444>
    83003624:	001b7793          	andi	a5,s6,1
    83003628:	00f13823          	sd	a5,16(sp)
    8300362c:	07010913          	addi	s2,sp,112
    83003630:	f40782e3          	beqz	a5,83003574 <_vfiprintf_r+0x450>
    83003634:	03000793          	li	a5,48
    83003638:	06f107a3          	sb	a5,111(sp)
    8300363c:	06f10913          	addi	s2,sp,111
    83003640:	f35ff06f          	j	83003574 <_vfiprintf_r+0x450>
    83003644:	01813783          	ld	a5,24(sp)
    83003648:	010b6b13          	ori	s6,s6,16
    8300364c:	000b0b1b          	sext.w	s6,s6
    83003650:	00878713          	addi	a4,a5,8
    83003654:	01813783          	ld	a5,24(sp)
    83003658:	00e13c23          	sd	a4,24(sp)
    8300365c:	0007b983          	ld	s3,0(a5)
    83003660:	00100793          	li	a5,1
    83003664:	f9dff06f          	j	83003600 <_vfiprintf_r+0x4dc>
    83003668:	01813703          	ld	a4,24(sp)
    8300366c:	00100693          	li	a3,1
    83003670:	00d13023          	sd	a3,0(sp)
    83003674:	00072783          	lw	a5,0(a4)
    83003678:	00870713          	addi	a4,a4,8
    8300367c:	00e13c23          	sd	a4,24(sp)
    83003680:	04f10423          	sb	a5,72(sp)
    83003684:	00100793          	li	a5,1
    83003688:	00f13823          	sd	a5,16(sp)
    8300368c:	04810913          	addi	s2,sp,72
    83003690:	c85ff06f          	j	83003314 <_vfiprintf_r+0x1f0>
    83003694:	040b6b13          	ori	s6,s6,64
    83003698:	000b0b1b          	sext.w	s6,s6
    8300369c:	000a8913          	mv	s2,s5
    830036a0:	bedff06f          	j	8300328c <_vfiprintf_r+0x168>
    830036a4:	01813683          	ld	a3,24(sp)
    830036a8:	010b7793          	andi	a5,s6,16
    830036ac:	0006b703          	ld	a4,0(a3)
    830036b0:	00868693          	addi	a3,a3,8
    830036b4:	00d13c23          	sd	a3,24(sp)
    830036b8:	50078663          	beqz	a5,83003bc4 <_vfiprintf_r+0xaa0>
    830036bc:	02013783          	ld	a5,32(sp)
    830036c0:	00f73023          	sd	a5,0(a4)
    830036c4:	ad5ff06f          	j	83003198 <_vfiprintf_r+0x74>
    830036c8:	d20c10e3          	bnez	s8,830033e8 <_vfiprintf_r+0x2c4>
    830036cc:	02000c13          	li	s8,32
    830036d0:	000a8913          	mv	s2,s5
    830036d4:	bb9ff06f          	j	8300328c <_vfiprintf_r+0x168>
    830036d8:	01813703          	ld	a4,24(sp)
    830036dc:	010b7793          	andi	a5,s6,16
    830036e0:	00870713          	addi	a4,a4,8
    830036e4:	f00796e3          	bnez	a5,830035f0 <_vfiprintf_r+0x4cc>
    830036e8:	01813683          	ld	a3,24(sp)
    830036ec:	040b7793          	andi	a5,s6,64
    830036f0:	0006a983          	lw	s3,0(a3)
    830036f4:	4e078863          	beqz	a5,83003be4 <_vfiprintf_r+0xac0>
    830036f8:	03099993          	slli	s3,s3,0x30
    830036fc:	0309d993          	srli	s3,s3,0x30
    83003700:	00e13c23          	sd	a4,24(sp)
    83003704:	00000793          	li	a5,0
    83003708:	ef9ff06f          	j	83003600 <_vfiprintf_r+0x4dc>
    8300370c:	01813783          	ld	a5,24(sp)
    83003710:	002b6b13          	ori	s6,s6,2
    83003714:	000b0b1b          	sext.w	s6,s6
    83003718:	0007b983          	ld	s3,0(a5)
    8300371c:	00878793          	addi	a5,a5,8
    83003720:	00f13c23          	sd	a5,24(sp)
    83003724:	07800793          	li	a5,120
    83003728:	02f13c23          	sd	a5,56(sp)
    8300372c:	00005797          	auipc	a5,0x5
    83003730:	b4478793          	addi	a5,a5,-1212 # 83008270 <_ZL9cmd_table+0x118>
    83003734:	02f13423          	sd	a5,40(sp)
    83003738:	00200793          	li	a5,2
    8300373c:	ec5ff06f          	j	83003600 <_vfiprintf_r+0x4dc>
    83003740:	01813783          	ld	a5,24(sp)
    83003744:	0007b903          	ld	s2,0(a5)
    83003748:	00878993          	addi	s3,a5,8
    8300374c:	4c090e63          	beqz	s2,83003c28 <_vfiprintf_r+0xb04>
    83003750:	fff00793          	li	a5,-1
    83003754:	4cfa0063          	beq	s4,a5,83003c14 <_vfiprintf_r+0xaf0>
    83003758:	000a0613          	mv	a2,s4
    8300375c:	00000593          	li	a1,0
    83003760:	00090513          	mv	a0,s2
    83003764:	00002097          	auipc	ra,0x2
    83003768:	c04080e7          	jalr	-1020(ra) # 83005368 <memchr>
    8300376c:	50050663          	beqz	a0,83003c78 <_vfiprintf_r+0xb54>
    83003770:	4125073b          	subw	a4,a0,s2
    83003774:	fff74793          	not	a5,a4
    83003778:	43f7d793          	srai	a5,a5,0x3f
    8300377c:	00e7f7b3          	and	a5,a5,a4
    83003780:	00e13823          	sd	a4,16(sp)
    83003784:	00f13023          	sd	a5,0(sp)
    83003788:	01313c23          	sd	s3,24(sp)
    8300378c:	b89ff06f          	j	83003314 <_vfiprintf_r+0x1f0>
    83003790:	01813703          	ld	a4,24(sp)
    83003794:	010b7793          	andi	a5,s6,16
    83003798:	00870713          	addi	a4,a4,8
    8300379c:	ea079ce3          	bnez	a5,83003654 <_vfiprintf_r+0x530>
    830037a0:	01813683          	ld	a3,24(sp)
    830037a4:	040b7793          	andi	a5,s6,64
    830037a8:	0006a983          	lw	s3,0(a3)
    830037ac:	44078663          	beqz	a5,83003bf8 <_vfiprintf_r+0xad4>
    830037b0:	03099993          	slli	s3,s3,0x30
    830037b4:	0309d993          	srli	s3,s3,0x30
    830037b8:	00e13c23          	sd	a4,24(sp)
    830037bc:	00100793          	li	a5,1
    830037c0:	e41ff06f          	j	83003600 <_vfiprintf_r+0x4dc>
    830037c4:	080b6b13          	ori	s6,s6,128
    830037c8:	000b0b1b          	sext.w	s6,s6
    830037cc:	000a8913          	mv	s2,s5
    830037d0:	abdff06f          	j	8300328c <_vfiprintf_r+0x168>
    830037d4:	001b6b13          	ori	s6,s6,1
    830037d8:	000b0b1b          	sext.w	s6,s6
    830037dc:	000a8913          	mv	s2,s5
    830037e0:	aadff06f          	j	8300328c <_vfiprintf_r+0x168>
    830037e4:	01813783          	ld	a5,24(sp)
    830037e8:	010b6b13          	ori	s6,s6,16
    830037ec:	000b0b1b          	sext.w	s6,s6
    830037f0:	00878713          	addi	a4,a5,8
    830037f4:	01813783          	ld	a5,24(sp)
    830037f8:	00e13c23          	sd	a4,24(sp)
    830037fc:	0007b783          	ld	a5,0(a5)
    83003800:	00078993          	mv	s3,a5
    83003804:	d407d4e3          	bgez	a5,8300354c <_vfiprintf_r+0x428>
    83003808:	fff00713          	li	a4,-1
    8300380c:	413009b3          	neg	s3,s3
    83003810:	02d00c13          	li	s8,45
    83003814:	00100793          	li	a5,1
    83003818:	deea1ae3          	bne	s4,a4,8300360c <_vfiprintf_r+0x4e8>
    8300381c:	00100713          	li	a4,1
    83003820:	26e78063          	beq	a5,a4,83003a80 <_vfiprintf_r+0x95c>
    83003824:	00200713          	li	a4,2
    83003828:	1ce78463          	beq	a5,a4,830039f0 <_vfiprintf_r+0x8cc>
    8300382c:	07010913          	addi	s2,sp,112
    83003830:	0079f793          	andi	a5,s3,7
    83003834:	03078793          	addi	a5,a5,48
    83003838:	fef90fa3          	sb	a5,-1(s2)
    8300383c:	0039d993          	srli	s3,s3,0x3
    83003840:	00090713          	mv	a4,s2
    83003844:	fff90913          	addi	s2,s2,-1
    83003848:	fe0994e3          	bnez	s3,83003830 <_vfiprintf_r+0x70c>
    8300384c:	001b7693          	andi	a3,s6,1
    83003850:	1c068263          	beqz	a3,83003a14 <_vfiprintf_r+0x8f0>
    83003854:	03000693          	li	a3,48
    83003858:	1ad78e63          	beq	a5,a3,83003a14 <_vfiprintf_r+0x8f0>
    8300385c:	ffe70713          	addi	a4,a4,-2
    83003860:	07010793          	addi	a5,sp,112
    83003864:	40e787bb          	subw	a5,a5,a4
    83003868:	fed90fa3          	sb	a3,-1(s2)
    8300386c:	00f13823          	sd	a5,16(sp)
    83003870:	01613423          	sd	s6,8(sp)
    83003874:	00070913          	mv	s2,a4
    83003878:	cfdff06f          	j	83003574 <_vfiprintf_r+0x450>
    8300387c:	02b00c13          	li	s8,43
    83003880:	000a8913          	mv	s2,s5
    83003884:	a09ff06f          	j	8300328c <_vfiprintf_r+0x168>
    83003888:	00005797          	auipc	a5,0x5
    8300388c:	9e878793          	addi	a5,a5,-1560 # 83008270 <_ZL9cmd_table+0x118>
    83003890:	02f13423          	sd	a5,40(sp)
    83003894:	01813603          	ld	a2,24(sp)
    83003898:	010b7793          	andi	a5,s6,16
    8300389c:	00860693          	addi	a3,a2,8
    830038a0:	2a078463          	beqz	a5,83003b48 <_vfiprintf_r+0xa24>
    830038a4:	00063983          	ld	s3,0(a2)
    830038a8:	001b7793          	andi	a5,s6,1
    830038ac:	1e078c63          	beqz	a5,83003aa4 <_vfiprintf_r+0x980>
    830038b0:	1e098a63          	beqz	s3,83003aa4 <_vfiprintf_r+0x980>
    830038b4:	0ff77793          	zext.b	a5,a4
    830038b8:	002b6b13          	ori	s6,s6,2
    830038bc:	02f13c23          	sd	a5,56(sp)
    830038c0:	000b0b1b          	sext.w	s6,s6
    830038c4:	00d13c23          	sd	a3,24(sp)
    830038c8:	00200793          	li	a5,2
    830038cc:	d35ff06f          	j	83003600 <_vfiprintf_r+0x4dc>
    830038d0:	ff0a0a1b          	addiw	s4,s4,-16
    830038d4:	ab4c4ce3          	blt	s8,s4,8300338c <_vfiprintf_r+0x268>
    830038d8:	00005997          	auipc	s3,0x5
    830038dc:	cb898993          	addi	s3,s3,-840 # 83008590 <zeroes.0>
    830038e0:	01498a33          	add	s4,s3,s4
    830038e4:	00005b17          	auipc	s6,0x5
    830038e8:	cadb0b13          	addi	s6,s6,-851 # 83008591 <zeroes.0+0x1>
    830038ec:	03000593          	li	a1,48
    830038f0:	fff00993          	li	s3,-1
    830038f4:	0100006f          	j	83003904 <_vfiprintf_r+0x7e0>
    830038f8:	076a0a63          	beq	s4,s6,8300396c <_vfiprintf_r+0x848>
    830038fc:	000b4583          	lbu	a1,0(s6)
    83003900:	001b0b13          	addi	s6,s6,1
    83003904:	00040613          	mv	a2,s0
    83003908:	00048513          	mv	a0,s1
    8300390c:	00000097          	auipc	ra,0x0
    83003910:	478080e7          	jalr	1144(ra) # 83003d84 <_fputc_r>
    83003914:	ff3512e3          	bne	a0,s3,830038f8 <_vfiprintf_r+0x7d4>
    83003918:	8ddff06f          	j	830031f4 <_vfiprintf_r+0xd0>
    8300391c:	ff0c8c9b          	addiw	s9,s9,-16
    83003920:	01000793          	li	a5,16
    83003924:	bd97c0e3          	blt	a5,s9,830034e4 <_vfiprintf_r+0x3c0>
    83003928:	00005797          	auipc	a5,0x5
    8300392c:	c5878793          	addi	a5,a5,-936 # 83008580 <blanks.1>
    83003930:	00005b17          	auipc	s6,0x5
    83003934:	c51b0b13          	addi	s6,s6,-943 # 83008581 <blanks.1+0x1>
    83003938:	01978cb3          	add	s9,a5,s9
    8300393c:	02000593          	li	a1,32
    83003940:	fff00993          	li	s3,-1
    83003944:	0100006f          	j	83003954 <_vfiprintf_r+0x830>
    83003948:	a19b06e3          	beq	s6,s9,83003354 <_vfiprintf_r+0x230>
    8300394c:	000b4583          	lbu	a1,0(s6)
    83003950:	001b0b13          	addi	s6,s6,1
    83003954:	00040613          	mv	a2,s0
    83003958:	00048513          	mv	a0,s1
    8300395c:	00000097          	auipc	ra,0x0
    83003960:	428080e7          	jalr	1064(ra) # 83003d84 <_fputc_r>
    83003964:	ff3512e3          	bne	a0,s3,83003948 <_vfiprintf_r+0x824>
    83003968:	88dff06f          	j	830031f4 <_vfiprintf_r+0xd0>
    8300396c:	01013783          	ld	a5,16(sp)
    83003970:	02078a63          	beqz	a5,830039a4 <_vfiprintf_r+0x880>
    83003974:	00f90bb3          	add	s7,s2,a5
    83003978:	fff00993          	li	s3,-1
    8300397c:	00c0006f          	j	83003988 <_vfiprintf_r+0x864>
    83003980:	00190913          	addi	s2,s2,1
    83003984:	03790063          	beq	s2,s7,830039a4 <_vfiprintf_r+0x880>
    83003988:	00094583          	lbu	a1,0(s2)
    8300398c:	00040613          	mv	a2,s0
    83003990:	00048513          	mv	a0,s1
    83003994:	00000097          	auipc	ra,0x0
    83003998:	3f0080e7          	jalr	1008(ra) # 83003d84 <_fputc_r>
    8300399c:	ff3512e3          	bne	a0,s3,83003980 <_vfiprintf_r+0x85c>
    830039a0:	855ff06f          	j	830031f4 <_vfiprintf_r+0xd0>
    830039a4:	00813783          	ld	a5,8(sp)
    830039a8:	0047f793          	andi	a5,a5,4
    830039ac:	00078863          	beqz	a5,830039bc <_vfiprintf_r+0x898>
    830039b0:	00013783          	ld	a5,0(sp)
    830039b4:	40fd0a3b          	subw	s4,s10,a5
    830039b8:	0f404c63          	bgtz	s4,83003ab0 <_vfiprintf_r+0x98c>
    830039bc:	00013703          	ld	a4,0(sp)
    830039c0:	000d0793          	mv	a5,s10
    830039c4:	00ed5463          	bge	s10,a4,830039cc <_vfiprintf_r+0x8a8>
    830039c8:	00070793          	mv	a5,a4
    830039cc:	02013703          	ld	a4,32(sp)
    830039d0:	00e787bb          	addw	a5,a5,a4
    830039d4:	02f13023          	sd	a5,32(sp)
    830039d8:	fc0ff06f          	j	83003198 <_vfiprintf_r+0x74>
    830039dc:	00100713          	li	a4,1
    830039e0:	28e78863          	beq	a5,a4,83003c70 <_vfiprintf_r+0xb4c>
    830039e4:	00200713          	li	a4,2
    830039e8:	00813b03          	ld	s6,8(sp)
    830039ec:	e4e790e3          	bne	a5,a4,8300382c <_vfiprintf_r+0x708>
    830039f0:	07010913          	addi	s2,sp,112
    830039f4:	02813703          	ld	a4,40(sp)
    830039f8:	00f9f793          	andi	a5,s3,15
    830039fc:	fff90913          	addi	s2,s2,-1
    83003a00:	00f707b3          	add	a5,a4,a5
    83003a04:	0007c783          	lbu	a5,0(a5)
    83003a08:	0049d993          	srli	s3,s3,0x4
    83003a0c:	00f90023          	sb	a5,0(s2)
    83003a10:	fe0992e3          	bnez	s3,830039f4 <_vfiprintf_r+0x8d0>
    83003a14:	07010793          	addi	a5,sp,112
    83003a18:	412787bb          	subw	a5,a5,s2
    83003a1c:	00f13823          	sd	a5,16(sp)
    83003a20:	01613423          	sd	s6,8(sp)
    83003a24:	b51ff06f          	j	83003574 <_vfiprintf_r+0x450>
    83003a28:	ff0c0c1b          	addiw	s8,s8,-16
    83003a2c:	a78cc8e3          	blt	s9,s8,8300349c <_vfiprintf_r+0x378>
    83003a30:	00005997          	auipc	s3,0x5
    83003a34:	b6098993          	addi	s3,s3,-1184 # 83008590 <zeroes.0>
    83003a38:	01898c33          	add	s8,s3,s8
    83003a3c:	00005c97          	auipc	s9,0x5
    83003a40:	b55c8c93          	addi	s9,s9,-1195 # 83008591 <zeroes.0+0x1>
    83003a44:	03000593          	li	a1,48
    83003a48:	fff00993          	li	s3,-1
    83003a4c:	0100006f          	j	83003a5c <_vfiprintf_r+0x938>
    83003a50:	919c0ce3          	beq	s8,s9,83003368 <_vfiprintf_r+0x244>
    83003a54:	000cc583          	lbu	a1,0(s9)
    83003a58:	001c8c93          	addi	s9,s9,1
    83003a5c:	00040613          	mv	a2,s0
    83003a60:	00048513          	mv	a0,s1
    83003a64:	00000097          	auipc	ra,0x0
    83003a68:	320080e7          	jalr	800(ra) # 83003d84 <_fputc_r>
    83003a6c:	ff3512e3          	bne	a0,s3,83003a50 <_vfiprintf_r+0x92c>
    83003a70:	f84ff06f          	j	830031f4 <_vfiprintf_r+0xd0>
    83003a74:	00100713          	li	a4,1
    83003a78:	00813b03          	ld	s6,8(sp)
    83003a7c:	dae794e3          	bne	a5,a4,83003824 <_vfiprintf_r+0x700>
    83003a80:	00900793          	li	a5,9
    83003a84:	0f37e063          	bltu	a5,s3,83003b64 <_vfiprintf_r+0xa40>
    83003a88:	0309899b          	addiw	s3,s3,48
    83003a8c:	00100793          	li	a5,1
    83003a90:	073107a3          	sb	s3,111(sp)
    83003a94:	01613423          	sd	s6,8(sp)
    83003a98:	00f13823          	sd	a5,16(sp)
    83003a9c:	06f10913          	addi	s2,sp,111
    83003aa0:	ad5ff06f          	j	83003574 <_vfiprintf_r+0x450>
    83003aa4:	00d13c23          	sd	a3,24(sp)
    83003aa8:	00200793          	li	a5,2
    83003aac:	b55ff06f          	j	83003600 <_vfiprintf_r+0x4dc>
    83003ab0:	01000793          	li	a5,16
    83003ab4:	0547d863          	bge	a5,s4,83003b04 <_vfiprintf_r+0x9e0>
    83003ab8:	00005997          	auipc	s3,0x5
    83003abc:	ad898993          	addi	s3,s3,-1320 # 83008590 <zeroes.0>
    83003ac0:	fff00913          	li	s2,-1
    83003ac4:	01000b13          	li	s6,16
    83003ac8:	00005b97          	auipc	s7,0x5
    83003acc:	ab9b8b93          	addi	s7,s7,-1351 # 83008581 <blanks.1+0x1>
    83003ad0:	02000593          	li	a1,32
    83003ad4:	0100006f          	j	83003ae4 <_vfiprintf_r+0x9c0>
    83003ad8:	03798263          	beq	s3,s7,83003afc <_vfiprintf_r+0x9d8>
    83003adc:	000bc583          	lbu	a1,0(s7)
    83003ae0:	001b8b93          	addi	s7,s7,1
    83003ae4:	00040613          	mv	a2,s0
    83003ae8:	00048513          	mv	a0,s1
    83003aec:	00000097          	auipc	ra,0x0
    83003af0:	298080e7          	jalr	664(ra) # 83003d84 <_fputc_r>
    83003af4:	ff2512e3          	bne	a0,s2,83003ad8 <_vfiprintf_r+0x9b4>
    83003af8:	efcff06f          	j	830031f4 <_vfiprintf_r+0xd0>
    83003afc:	ff0a0a1b          	addiw	s4,s4,-16
    83003b00:	fd4b44e3          	blt	s6,s4,83003ac8 <_vfiprintf_r+0x9a4>
    83003b04:	00005797          	auipc	a5,0x5
    83003b08:	a7c78793          	addi	a5,a5,-1412 # 83008580 <blanks.1>
    83003b0c:	00005997          	auipc	s3,0x5
    83003b10:	a7598993          	addi	s3,s3,-1419 # 83008581 <blanks.1+0x1>
    83003b14:	01478a33          	add	s4,a5,s4
    83003b18:	02000593          	li	a1,32
    83003b1c:	fff00913          	li	s2,-1
    83003b20:	0100006f          	j	83003b30 <_vfiprintf_r+0xa0c>
    83003b24:	e9498ce3          	beq	s3,s4,830039bc <_vfiprintf_r+0x898>
    83003b28:	0009c583          	lbu	a1,0(s3)
    83003b2c:	00198993          	addi	s3,s3,1
    83003b30:	00040613          	mv	a2,s0
    83003b34:	00048513          	mv	a0,s1
    83003b38:	00000097          	auipc	ra,0x0
    83003b3c:	24c080e7          	jalr	588(ra) # 83003d84 <_fputc_r>
    83003b40:	ff2512e3          	bne	a0,s2,83003b24 <_vfiprintf_r+0xa00>
    83003b44:	eb0ff06f          	j	830031f4 <_vfiprintf_r+0xd0>
    83003b48:	01813603          	ld	a2,24(sp)
    83003b4c:	040b7793          	andi	a5,s6,64
    83003b50:	00062983          	lw	s3,0(a2)
    83003b54:	06078263          	beqz	a5,83003bb8 <_vfiprintf_r+0xa94>
    83003b58:	03099993          	slli	s3,s3,0x30
    83003b5c:	0309d993          	srli	s3,s3,0x30
    83003b60:	d49ff06f          	j	830038a8 <_vfiprintf_r+0x784>
    83003b64:	07010913          	addi	s2,sp,112
    83003b68:	00a00593          	li	a1,10
    83003b6c:	00098513          	mv	a0,s3
    83003b70:	00004097          	auipc	ra,0x4
    83003b74:	978080e7          	jalr	-1672(ra) # 830074e8 <__umoddi3>
    83003b78:	0305079b          	addiw	a5,a0,48
    83003b7c:	fef90fa3          	sb	a5,-1(s2)
    83003b80:	00098513          	mv	a0,s3
    83003b84:	00a00593          	li	a1,10
    83003b88:	00004097          	auipc	ra,0x4
    83003b8c:	918080e7          	jalr	-1768(ra) # 830074a0 <__udivdi3>
    83003b90:	00098b93          	mv	s7,s3
    83003b94:	00900793          	li	a5,9
    83003b98:	fff90913          	addi	s2,s2,-1
    83003b9c:	00050993          	mv	s3,a0
    83003ba0:	fd77e4e3          	bltu	a5,s7,83003b68 <_vfiprintf_r+0xa44>
    83003ba4:	07010793          	addi	a5,sp,112
    83003ba8:	412787bb          	subw	a5,a5,s2
    83003bac:	00f13823          	sd	a5,16(sp)
    83003bb0:	01613423          	sd	s6,8(sp)
    83003bb4:	9c1ff06f          	j	83003574 <_vfiprintf_r+0x450>
    83003bb8:	02099993          	slli	s3,s3,0x20
    83003bbc:	0209d993          	srli	s3,s3,0x20
    83003bc0:	ce9ff06f          	j	830038a8 <_vfiprintf_r+0x784>
    83003bc4:	040b7b13          	andi	s6,s6,64
    83003bc8:	02013783          	ld	a5,32(sp)
    83003bcc:	080b0263          	beqz	s6,83003c50 <_vfiprintf_r+0xb2c>
    83003bd0:	00f71023          	sh	a5,0(a4)
    83003bd4:	dc4ff06f          	j	83003198 <_vfiprintf_r+0x74>
    83003bd8:	00098793          	mv	a5,s3
    83003bdc:	00e13c23          	sd	a4,24(sp)
    83003be0:	969ff06f          	j	83003548 <_vfiprintf_r+0x424>
    83003be4:	02099993          	slli	s3,s3,0x20
    83003be8:	0209d993          	srli	s3,s3,0x20
    83003bec:	00e13c23          	sd	a4,24(sp)
    83003bf0:	00000793          	li	a5,0
    83003bf4:	a0dff06f          	j	83003600 <_vfiprintf_r+0x4dc>
    83003bf8:	02099993          	slli	s3,s3,0x20
    83003bfc:	0209d993          	srli	s3,s3,0x20
    83003c00:	00e13c23          	sd	a4,24(sp)
    83003c04:	00100793          	li	a5,1
    83003c08:	9f9ff06f          	j	83003600 <_vfiprintf_r+0x4dc>
    83003c0c:	00813b03          	ld	s6,8(sp)
    83003c10:	e71ff06f          	j	83003a80 <_vfiprintf_r+0x95c>
    83003c14:	00090513          	mv	a0,s2
    83003c18:	ffffe097          	auipc	ra,0xffffe
    83003c1c:	53c080e7          	jalr	1340(ra) # 83002154 <strlen>
    83003c20:	0005071b          	sext.w	a4,a0
    83003c24:	b51ff06f          	j	83003774 <_vfiprintf_r+0x650>
    83003c28:	00600793          	li	a5,6
    83003c2c:	000a0b93          	mv	s7,s4
    83003c30:	0347ec63          	bltu	a5,s4,83003c68 <_vfiprintf_r+0xb44>
    83003c34:	000b879b          	sext.w	a5,s7
    83003c38:	00f13823          	sd	a5,16(sp)
    83003c3c:	00f13023          	sd	a5,0(sp)
    83003c40:	01313c23          	sd	s3,24(sp)
    83003c44:	00004917          	auipc	s2,0x4
    83003c48:	64490913          	addi	s2,s2,1604 # 83008288 <_ZL9cmd_table+0x130>
    83003c4c:	ec8ff06f          	j	83003314 <_vfiprintf_r+0x1f0>
    83003c50:	00f72023          	sw	a5,0(a4)
    83003c54:	d44ff06f          	j	83003198 <_vfiprintf_r+0x74>
    83003c58:	00004797          	auipc	a5,0x4
    83003c5c:	60078793          	addi	a5,a5,1536 # 83008258 <_ZL9cmd_table+0x100>
    83003c60:	02f13423          	sd	a5,40(sp)
    83003c64:	c31ff06f          	j	83003894 <_vfiprintf_r+0x770>
    83003c68:	00600b93          	li	s7,6
    83003c6c:	fc9ff06f          	j	83003c34 <_vfiprintf_r+0xb10>
    83003c70:	00813b03          	ld	s6,8(sp)
    83003c74:	e15ff06f          	j	83003a88 <_vfiprintf_r+0x964>
    83003c78:	01413023          	sd	s4,0(sp)
    83003c7c:	01313c23          	sd	s3,24(sp)
    83003c80:	01413823          	sd	s4,16(sp)
    83003c84:	e90ff06f          	j	83003314 <_vfiprintf_r+0x1f0>
    83003c88:	01813703          	ld	a4,24(sp)
    83003c8c:	00072783          	lw	a5,0(a4)
    83003c90:	00870713          	addi	a4,a4,8
    83003c94:	00078a1b          	sext.w	s4,a5
    83003c98:	0007c863          	bltz	a5,83003ca8 <_vfiprintf_r+0xb84>
    83003c9c:	00e13c23          	sd	a4,24(sp)
    83003ca0:	000a8913          	mv	s2,s5
    83003ca4:	de8ff06f          	j	8300328c <_vfiprintf_r+0x168>
    83003ca8:	fff00a13          	li	s4,-1
    83003cac:	00e13c23          	sd	a4,24(sp)
    83003cb0:	ff1ff06f          	j	83003ca0 <_vfiprintf_r+0xb7c>

0000000083003cb4 <vfiprintf>:
    83003cb4:	00060693          	mv	a3,a2
    83003cb8:	00058613          	mv	a2,a1
    83003cbc:	00050593          	mv	a1,a0
    83003cc0:	00007517          	auipc	a0,0x7
    83003cc4:	98053503          	ld	a0,-1664(a0) # 8300a640 <_impure_ptr>
    83003cc8:	fffff317          	auipc	t1,0xfffff
    83003ccc:	45c30067          	jr	1116(t1) # 83003124 <_vfiprintf_r>

0000000083003cd0 <_fprintf_r>:
    83003cd0:	fb010113          	addi	sp,sp,-80
    83003cd4:	02810313          	addi	t1,sp,40
    83003cd8:	02d13423          	sd	a3,40(sp)
    83003cdc:	00030693          	mv	a3,t1
    83003ce0:	00113c23          	sd	ra,24(sp)
    83003ce4:	02e13823          	sd	a4,48(sp)
    83003ce8:	02f13c23          	sd	a5,56(sp)
    83003cec:	05013023          	sd	a6,64(sp)
    83003cf0:	05113423          	sd	a7,72(sp)
    83003cf4:	00613423          	sd	t1,8(sp)
    83003cf8:	fffff097          	auipc	ra,0xfffff
    83003cfc:	8a4080e7          	jalr	-1884(ra) # 8300259c <_vfprintf_r>
    83003d00:	01813083          	ld	ra,24(sp)
    83003d04:	05010113          	addi	sp,sp,80
    83003d08:	00008067          	ret

0000000083003d0c <fprintf>:
    83003d0c:	fb010113          	addi	sp,sp,-80
    83003d10:	02010313          	addi	t1,sp,32
    83003d14:	02c13023          	sd	a2,32(sp)
    83003d18:	02d13423          	sd	a3,40(sp)
    83003d1c:	00058613          	mv	a2,a1
    83003d20:	00030693          	mv	a3,t1
    83003d24:	00050593          	mv	a1,a0
    83003d28:	00007517          	auipc	a0,0x7
    83003d2c:	91853503          	ld	a0,-1768(a0) # 8300a640 <_impure_ptr>
    83003d30:	00113c23          	sd	ra,24(sp)
    83003d34:	02e13823          	sd	a4,48(sp)
    83003d38:	02f13c23          	sd	a5,56(sp)
    83003d3c:	05013023          	sd	a6,64(sp)
    83003d40:	05113423          	sd	a7,72(sp)
    83003d44:	00613423          	sd	t1,8(sp)
    83003d48:	fffff097          	auipc	ra,0xfffff
    83003d4c:	854080e7          	jalr	-1964(ra) # 8300259c <_vfprintf_r>
    83003d50:	01813083          	ld	ra,24(sp)
    83003d54:	05010113          	addi	sp,sp,80
    83003d58:	00008067          	ret

0000000083003d5c <_putchar_r>:
    83003d5c:	01053603          	ld	a2,16(a0)
    83003d60:	00002317          	auipc	t1,0x2
    83003d64:	07830067          	jr	120(t1) # 83005dd8 <_putc_r>

0000000083003d68 <putchar>:
    83003d68:	00007797          	auipc	a5,0x7
    83003d6c:	8d87b783          	ld	a5,-1832(a5) # 8300a640 <_impure_ptr>
    83003d70:	0107b603          	ld	a2,16(a5)
    83003d74:	00050593          	mv	a1,a0
    83003d78:	00078513          	mv	a0,a5
    83003d7c:	00002317          	auipc	t1,0x2
    83003d80:	05c30067          	jr	92(t1) # 83005dd8 <_putc_r>

0000000083003d84 <_fputc_r>:
    83003d84:	fe010113          	addi	sp,sp,-32
    83003d88:	00813823          	sd	s0,16(sp)
    83003d8c:	00113c23          	sd	ra,24(sp)
    83003d90:	00050413          	mv	s0,a0
    83003d94:	00050663          	beqz	a0,83003da0 <_fputc_r+0x1c>
    83003d98:	05052783          	lw	a5,80(a0)
    83003d9c:	00078e63          	beqz	a5,83003db8 <_fputc_r+0x34>
    83003da0:	00040513          	mv	a0,s0
    83003da4:	01013403          	ld	s0,16(sp)
    83003da8:	01813083          	ld	ra,24(sp)
    83003dac:	02010113          	addi	sp,sp,32
    83003db0:	00002317          	auipc	t1,0x2
    83003db4:	02830067          	jr	40(t1) # 83005dd8 <_putc_r>
    83003db8:	00c13423          	sd	a2,8(sp)
    83003dbc:	00b13023          	sd	a1,0(sp)
    83003dc0:	00000097          	auipc	ra,0x0
    83003dc4:	42c080e7          	jalr	1068(ra) # 830041ec <__sinit>
    83003dc8:	00040513          	mv	a0,s0
    83003dcc:	01013403          	ld	s0,16(sp)
    83003dd0:	00813603          	ld	a2,8(sp)
    83003dd4:	00013583          	ld	a1,0(sp)
    83003dd8:	01813083          	ld	ra,24(sp)
    83003ddc:	02010113          	addi	sp,sp,32
    83003de0:	00002317          	auipc	t1,0x2
    83003de4:	ff830067          	jr	-8(t1) # 83005dd8 <_putc_r>

0000000083003de8 <fputc>:
    83003de8:	fe010113          	addi	sp,sp,-32
    83003dec:	00813823          	sd	s0,16(sp)
    83003df0:	00113c23          	sd	ra,24(sp)
    83003df4:	00050413          	mv	s0,a0
    83003df8:	00007517          	auipc	a0,0x7
    83003dfc:	84853503          	ld	a0,-1976(a0) # 8300a640 <_impure_ptr>
    83003e00:	00058613          	mv	a2,a1
    83003e04:	00050663          	beqz	a0,83003e10 <fputc+0x28>
    83003e08:	05052783          	lw	a5,80(a0)
    83003e0c:	00078e63          	beqz	a5,83003e28 <fputc+0x40>
    83003e10:	00040593          	mv	a1,s0
    83003e14:	01013403          	ld	s0,16(sp)
    83003e18:	01813083          	ld	ra,24(sp)
    83003e1c:	02010113          	addi	sp,sp,32
    83003e20:	00002317          	auipc	t1,0x2
    83003e24:	fb830067          	jr	-72(t1) # 83005dd8 <_putc_r>
    83003e28:	00b13423          	sd	a1,8(sp)
    83003e2c:	00a13023          	sd	a0,0(sp)
    83003e30:	00000097          	auipc	ra,0x0
    83003e34:	3bc080e7          	jalr	956(ra) # 830041ec <__sinit>
    83003e38:	00040593          	mv	a1,s0
    83003e3c:	01013403          	ld	s0,16(sp)
    83003e40:	00813603          	ld	a2,8(sp)
    83003e44:	00013503          	ld	a0,0(sp)
    83003e48:	01813083          	ld	ra,24(sp)
    83003e4c:	02010113          	addi	sp,sp,32
    83003e50:	00002317          	auipc	t1,0x2
    83003e54:	f8830067          	jr	-120(t1) # 83005dd8 <_putc_r>

0000000083003e58 <__fp_lock>:
    83003e58:	00000513          	li	a0,0
    83003e5c:	00008067          	ret

0000000083003e60 <_cleanup_r>:
    83003e60:	00002597          	auipc	a1,0x2
    83003e64:	0c858593          	addi	a1,a1,200 # 83005f28 <_fclose_r>
    83003e68:	00002317          	auipc	t1,0x2
    83003e6c:	2c830067          	jr	712(t1) # 83006130 <_fwalk_reent>

0000000083003e70 <__fp_unlock>:
    83003e70:	00000513          	li	a0,0
    83003e74:	00008067          	ret

0000000083003e78 <__sinit.part.0>:
    83003e78:	fc010113          	addi	sp,sp,-64
    83003e7c:	02113c23          	sd	ra,56(sp)
    83003e80:	02813823          	sd	s0,48(sp)
    83003e84:	02913423          	sd	s1,40(sp)
    83003e88:	03213023          	sd	s2,32(sp)
    83003e8c:	01313c23          	sd	s3,24(sp)
    83003e90:	01413823          	sd	s4,16(sp)
    83003e94:	01513423          	sd	s5,8(sp)
    83003e98:	01613023          	sd	s6,0(sp)
    83003e9c:	00853403          	ld	s0,8(a0)
    83003ea0:	00000717          	auipc	a4,0x0
    83003ea4:	fc070713          	addi	a4,a4,-64 # 83003e60 <_cleanup_r>
    83003ea8:	04e53c23          	sd	a4,88(a0)
    83003eac:	53850793          	addi	a5,a0,1336
    83003eb0:	00300713          	li	a4,3
    83003eb4:	52e52423          	sw	a4,1320(a0)
    83003eb8:	52f53823          	sd	a5,1328(a0)
    83003ebc:	52053023          	sd	zero,1312(a0)
    83003ec0:	00400793          	li	a5,4
    83003ec4:	00050913          	mv	s2,a0
    83003ec8:	00f42823          	sw	a5,16(s0)
    83003ecc:	00800613          	li	a2,8
    83003ed0:	00000593          	li	a1,0
    83003ed4:	0a042623          	sw	zero,172(s0)
    83003ed8:	00043023          	sd	zero,0(s0)
    83003edc:	00043423          	sd	zero,8(s0)
    83003ee0:	00043c23          	sd	zero,24(s0)
    83003ee4:	02042023          	sw	zero,32(s0)
    83003ee8:	02042423          	sw	zero,40(s0)
    83003eec:	0a440513          	addi	a0,s0,164
    83003ef0:	00001097          	auipc	ra,0x1
    83003ef4:	384080e7          	jalr	900(ra) # 83005274 <memset>
    83003ef8:	01093483          	ld	s1,16(s2)
    83003efc:	00002b17          	auipc	s6,0x2
    83003f00:	d6cb0b13          	addi	s6,s6,-660 # 83005c68 <__sread>
    83003f04:	00002a97          	auipc	s5,0x2
    83003f08:	dcca8a93          	addi	s5,s5,-564 # 83005cd0 <__swrite>
    83003f0c:	00002a17          	auipc	s4,0x2
    83003f10:	e54a0a13          	addi	s4,s4,-428 # 83005d60 <__sseek>
    83003f14:	00002997          	auipc	s3,0x2
    83003f18:	eb898993          	addi	s3,s3,-328 # 83005dcc <__sclose>
    83003f1c:	000107b7          	lui	a5,0x10
    83003f20:	03643c23          	sd	s6,56(s0)
    83003f24:	05543023          	sd	s5,64(s0)
    83003f28:	05443423          	sd	s4,72(s0)
    83003f2c:	05343823          	sd	s3,80(s0)
    83003f30:	02843823          	sd	s0,48(s0)
    83003f34:	00978793          	addi	a5,a5,9 # 10009 <main-0x82ff0117>
    83003f38:	00f4a823          	sw	a5,16(s1)
    83003f3c:	00800613          	li	a2,8
    83003f40:	00000593          	li	a1,0
    83003f44:	0a04a623          	sw	zero,172(s1)
    83003f48:	0004b023          	sd	zero,0(s1)
    83003f4c:	0004b423          	sd	zero,8(s1)
    83003f50:	0004bc23          	sd	zero,24(s1)
    83003f54:	0204a023          	sw	zero,32(s1)
    83003f58:	0204a423          	sw	zero,40(s1)
    83003f5c:	0a448513          	addi	a0,s1,164
    83003f60:	00001097          	auipc	ra,0x1
    83003f64:	314080e7          	jalr	788(ra) # 83005274 <memset>
    83003f68:	01893403          	ld	s0,24(s2)
    83003f6c:	000207b7          	lui	a5,0x20
    83003f70:	0364bc23          	sd	s6,56(s1)
    83003f74:	0554b023          	sd	s5,64(s1)
    83003f78:	0544b423          	sd	s4,72(s1)
    83003f7c:	0534b823          	sd	s3,80(s1)
    83003f80:	0294b823          	sd	s1,48(s1)
    83003f84:	01278793          	addi	a5,a5,18 # 20012 <main-0x82fe010e>
    83003f88:	00f42823          	sw	a5,16(s0)
    83003f8c:	0a042623          	sw	zero,172(s0)
    83003f90:	00043023          	sd	zero,0(s0)
    83003f94:	00043423          	sd	zero,8(s0)
    83003f98:	00043c23          	sd	zero,24(s0)
    83003f9c:	02042023          	sw	zero,32(s0)
    83003fa0:	02042423          	sw	zero,40(s0)
    83003fa4:	0a440513          	addi	a0,s0,164
    83003fa8:	00800613          	li	a2,8
    83003fac:	00000593          	li	a1,0
    83003fb0:	00001097          	auipc	ra,0x1
    83003fb4:	2c4080e7          	jalr	708(ra) # 83005274 <memset>
    83003fb8:	03813083          	ld	ra,56(sp)
    83003fbc:	03643c23          	sd	s6,56(s0)
    83003fc0:	05543023          	sd	s5,64(s0)
    83003fc4:	05443423          	sd	s4,72(s0)
    83003fc8:	05343823          	sd	s3,80(s0)
    83003fcc:	02843823          	sd	s0,48(s0)
    83003fd0:	03013403          	ld	s0,48(sp)
    83003fd4:	00100793          	li	a5,1
    83003fd8:	04f92823          	sw	a5,80(s2)
    83003fdc:	02813483          	ld	s1,40(sp)
    83003fe0:	02013903          	ld	s2,32(sp)
    83003fe4:	01813983          	ld	s3,24(sp)
    83003fe8:	01013a03          	ld	s4,16(sp)
    83003fec:	00813a83          	ld	s5,8(sp)
    83003ff0:	00013b03          	ld	s6,0(sp)
    83003ff4:	04010113          	addi	sp,sp,64
    83003ff8:	00008067          	ret

0000000083003ffc <__sfmoreglue>:
    83003ffc:	fe010113          	addi	sp,sp,-32
    83004000:	fff5879b          	addiw	a5,a1,-1
    83004004:	00813823          	sd	s0,16(sp)
    83004008:	00179413          	slli	s0,a5,0x1
    8300400c:	00f40433          	add	s0,s0,a5
    83004010:	00241413          	slli	s0,s0,0x2
    83004014:	40f40433          	sub	s0,s0,a5
    83004018:	00441413          	slli	s0,s0,0x4
    8300401c:	01213023          	sd	s2,0(sp)
    83004020:	00058913          	mv	s2,a1
    83004024:	0c840593          	addi	a1,s0,200
    83004028:	00913423          	sd	s1,8(sp)
    8300402c:	00113c23          	sd	ra,24(sp)
    83004030:	00000097          	auipc	ra,0x0
    83004034:	3f0080e7          	jalr	1008(ra) # 83004420 <_malloc_r>
    83004038:	00050493          	mv	s1,a0
    8300403c:	02050263          	beqz	a0,83004060 <__sfmoreglue+0x64>
    83004040:	01850513          	addi	a0,a0,24
    83004044:	0004b023          	sd	zero,0(s1)
    83004048:	0124a423          	sw	s2,8(s1)
    8300404c:	00a4b823          	sd	a0,16(s1)
    83004050:	0b040613          	addi	a2,s0,176
    83004054:	00000593          	li	a1,0
    83004058:	00001097          	auipc	ra,0x1
    8300405c:	21c080e7          	jalr	540(ra) # 83005274 <memset>
    83004060:	01813083          	ld	ra,24(sp)
    83004064:	01013403          	ld	s0,16(sp)
    83004068:	00013903          	ld	s2,0(sp)
    8300406c:	00048513          	mv	a0,s1
    83004070:	00813483          	ld	s1,8(sp)
    83004074:	02010113          	addi	sp,sp,32
    83004078:	00008067          	ret

000000008300407c <__sfp>:
    8300407c:	fd010113          	addi	sp,sp,-48
    83004080:	01213823          	sd	s2,16(sp)
    83004084:	00006917          	auipc	s2,0x6
    83004088:	55c93903          	ld	s2,1372(s2) # 8300a5e0 <_global_impure_ptr>
    8300408c:	05092783          	lw	a5,80(s2)
    83004090:	00913c23          	sd	s1,24(sp)
    83004094:	02113423          	sd	ra,40(sp)
    83004098:	02813023          	sd	s0,32(sp)
    8300409c:	01313423          	sd	s3,8(sp)
    830040a0:	00050493          	mv	s1,a0
    830040a4:	0c078663          	beqz	a5,83004170 <__sfp+0xf4>
    830040a8:	52090913          	addi	s2,s2,1312
    830040ac:	00400993          	li	s3,4
    830040b0:	00892703          	lw	a4,8(s2)
    830040b4:	01093403          	ld	s0,16(s2)
    830040b8:	0ae05463          	blez	a4,83004160 <__sfp+0xe4>
    830040bc:	fff7071b          	addiw	a4,a4,-1
    830040c0:	02071713          	slli	a4,a4,0x20
    830040c4:	02075713          	srli	a4,a4,0x20
    830040c8:	00170713          	addi	a4,a4,1
    830040cc:	00171793          	slli	a5,a4,0x1
    830040d0:	00e787b3          	add	a5,a5,a4
    830040d4:	00279793          	slli	a5,a5,0x2
    830040d8:	40e787b3          	sub	a5,a5,a4
    830040dc:	00479793          	slli	a5,a5,0x4
    830040e0:	00f407b3          	add	a5,s0,a5
    830040e4:	00c0006f          	j	830040f0 <__sfp+0x74>
    830040e8:	0b040413          	addi	s0,s0,176
    830040ec:	06f40a63          	beq	s0,a5,83004160 <__sfp+0xe4>
    830040f0:	01041703          	lh	a4,16(s0)
    830040f4:	fe071ae3          	bnez	a4,830040e8 <__sfp+0x6c>
    830040f8:	ffff07b7          	lui	a5,0xffff0
    830040fc:	00178793          	addi	a5,a5,1 # ffffffffffff0001 <__BSS_END__+0xffffffff7cfe5381>
    83004100:	0a042623          	sw	zero,172(s0)
    83004104:	00043023          	sd	zero,0(s0)
    83004108:	00043423          	sd	zero,8(s0)
    8300410c:	00f42823          	sw	a5,16(s0)
    83004110:	00043c23          	sd	zero,24(s0)
    83004114:	02042023          	sw	zero,32(s0)
    83004118:	02042423          	sw	zero,40(s0)
    8300411c:	00800613          	li	a2,8
    83004120:	00000593          	li	a1,0
    83004124:	0a440513          	addi	a0,s0,164
    83004128:	00001097          	auipc	ra,0x1
    8300412c:	14c080e7          	jalr	332(ra) # 83005274 <memset>
    83004130:	04043c23          	sd	zero,88(s0)
    83004134:	06042023          	sw	zero,96(s0)
    83004138:	06043c23          	sd	zero,120(s0)
    8300413c:	08042023          	sw	zero,128(s0)
    83004140:	02813083          	ld	ra,40(sp)
    83004144:	00040513          	mv	a0,s0
    83004148:	02013403          	ld	s0,32(sp)
    8300414c:	01813483          	ld	s1,24(sp)
    83004150:	01013903          	ld	s2,16(sp)
    83004154:	00813983          	ld	s3,8(sp)
    83004158:	03010113          	addi	sp,sp,48
    8300415c:	00008067          	ret
    83004160:	00093403          	ld	s0,0(s2)
    83004164:	00040e63          	beqz	s0,83004180 <__sfp+0x104>
    83004168:	00040913          	mv	s2,s0
    8300416c:	f45ff06f          	j	830040b0 <__sfp+0x34>
    83004170:	00090513          	mv	a0,s2
    83004174:	00000097          	auipc	ra,0x0
    83004178:	d04080e7          	jalr	-764(ra) # 83003e78 <__sinit.part.0>
    8300417c:	f2dff06f          	j	830040a8 <__sfp+0x2c>
    83004180:	2d800593          	li	a1,728
    83004184:	00048513          	mv	a0,s1
    83004188:	00000097          	auipc	ra,0x0
    8300418c:	298080e7          	jalr	664(ra) # 83004420 <_malloc_r>
    83004190:	00050413          	mv	s0,a0
    83004194:	02050863          	beqz	a0,830041c4 <__sfp+0x148>
    83004198:	01850513          	addi	a0,a0,24
    8300419c:	00043023          	sd	zero,0(s0)
    830041a0:	01342423          	sw	s3,8(s0)
    830041a4:	00a43823          	sd	a0,16(s0)
    830041a8:	2c000613          	li	a2,704
    830041ac:	00000593          	li	a1,0
    830041b0:	00001097          	auipc	ra,0x1
    830041b4:	0c4080e7          	jalr	196(ra) # 83005274 <memset>
    830041b8:	00893023          	sd	s0,0(s2)
    830041bc:	00040913          	mv	s2,s0
    830041c0:	ef1ff06f          	j	830040b0 <__sfp+0x34>
    830041c4:	00093023          	sd	zero,0(s2)
    830041c8:	00c00793          	li	a5,12
    830041cc:	00f4a023          	sw	a5,0(s1)
    830041d0:	f71ff06f          	j	83004140 <__sfp+0xc4>

00000000830041d4 <_cleanup>:
    830041d4:	00002597          	auipc	a1,0x2
    830041d8:	d5458593          	addi	a1,a1,-684 # 83005f28 <_fclose_r>
    830041dc:	00006517          	auipc	a0,0x6
    830041e0:	40453503          	ld	a0,1028(a0) # 8300a5e0 <_global_impure_ptr>
    830041e4:	00002317          	auipc	t1,0x2
    830041e8:	f4c30067          	jr	-180(t1) # 83006130 <_fwalk_reent>

00000000830041ec <__sinit>:
    830041ec:	05052783          	lw	a5,80(a0)
    830041f0:	00078463          	beqz	a5,830041f8 <__sinit+0xc>
    830041f4:	00008067          	ret
    830041f8:	00000317          	auipc	t1,0x0
    830041fc:	c8030067          	jr	-896(t1) # 83003e78 <__sinit.part.0>

0000000083004200 <__sfp_lock_acquire>:
    83004200:	00008067          	ret

0000000083004204 <__sfp_lock_release>:
    83004204:	00008067          	ret

0000000083004208 <__sinit_lock_acquire>:
    83004208:	00008067          	ret

000000008300420c <__sinit_lock_release>:
    8300420c:	00008067          	ret

0000000083004210 <__fp_lock_all>:
    83004210:	00000597          	auipc	a1,0x0
    83004214:	c4858593          	addi	a1,a1,-952 # 83003e58 <__fp_lock>
    83004218:	00006517          	auipc	a0,0x6
    8300421c:	42853503          	ld	a0,1064(a0) # 8300a640 <_impure_ptr>
    83004220:	00002317          	auipc	t1,0x2
    83004224:	e4830067          	jr	-440(t1) # 83006068 <_fwalk>

0000000083004228 <__fp_unlock_all>:
    83004228:	00000597          	auipc	a1,0x0
    8300422c:	c4858593          	addi	a1,a1,-952 # 83003e70 <__fp_unlock>
    83004230:	00006517          	auipc	a0,0x6
    83004234:	41053503          	ld	a0,1040(a0) # 8300a640 <_impure_ptr>
    83004238:	00002317          	auipc	t1,0x2
    8300423c:	e3030067          	jr	-464(t1) # 83006068 <_fwalk>

0000000083004240 <__swsetup_r>:
    83004240:	fe010113          	addi	sp,sp,-32
    83004244:	00813823          	sd	s0,16(sp)
    83004248:	00913423          	sd	s1,8(sp)
    8300424c:	00113c23          	sd	ra,24(sp)
    83004250:	00006797          	auipc	a5,0x6
    83004254:	3f07b783          	ld	a5,1008(a5) # 8300a640 <_impure_ptr>
    83004258:	00050493          	mv	s1,a0
    8300425c:	00058413          	mv	s0,a1
    83004260:	00078663          	beqz	a5,8300426c <__swsetup_r+0x2c>
    83004264:	0507a703          	lw	a4,80(a5)
    83004268:	08070463          	beqz	a4,830042f0 <__swsetup_r+0xb0>
    8300426c:	01041703          	lh	a4,16(s0)
    83004270:	03071793          	slli	a5,a4,0x30
    83004274:	00877693          	andi	a3,a4,8
    83004278:	0307d793          	srli	a5,a5,0x30
    8300427c:	08068a63          	beqz	a3,83004310 <__swsetup_r+0xd0>
    83004280:	01843683          	ld	a3,24(s0)
    83004284:	0a068a63          	beqz	a3,83004338 <__swsetup_r+0xf8>
    83004288:	0017f613          	andi	a2,a5,1
    8300428c:	02060863          	beqz	a2,830042bc <__swsetup_r+0x7c>
    83004290:	02042603          	lw	a2,32(s0)
    83004294:	00042623          	sw	zero,12(s0)
    83004298:	00000513          	li	a0,0
    8300429c:	40c0063b          	negw	a2,a2
    830042a0:	02c42423          	sw	a2,40(s0)
    830042a4:	02068a63          	beqz	a3,830042d8 <__swsetup_r+0x98>
    830042a8:	01813083          	ld	ra,24(sp)
    830042ac:	01013403          	ld	s0,16(sp)
    830042b0:	00813483          	ld	s1,8(sp)
    830042b4:	02010113          	addi	sp,sp,32
    830042b8:	00008067          	ret
    830042bc:	0027f613          	andi	a2,a5,2
    830042c0:	00000593          	li	a1,0
    830042c4:	00061463          	bnez	a2,830042cc <__swsetup_r+0x8c>
    830042c8:	02042583          	lw	a1,32(s0)
    830042cc:	00b42623          	sw	a1,12(s0)
    830042d0:	00000513          	li	a0,0
    830042d4:	fc069ae3          	bnez	a3,830042a8 <__swsetup_r+0x68>
    830042d8:	0807f793          	andi	a5,a5,128
    830042dc:	fc0786e3          	beqz	a5,830042a8 <__swsetup_r+0x68>
    830042e0:	04076713          	ori	a4,a4,64
    830042e4:	00e41823          	sh	a4,16(s0)
    830042e8:	fff00513          	li	a0,-1
    830042ec:	fbdff06f          	j	830042a8 <__swsetup_r+0x68>
    830042f0:	00078513          	mv	a0,a5
    830042f4:	00000097          	auipc	ra,0x0
    830042f8:	ef8080e7          	jalr	-264(ra) # 830041ec <__sinit>
    830042fc:	01041703          	lh	a4,16(s0)
    83004300:	03071793          	slli	a5,a4,0x30
    83004304:	00877693          	andi	a3,a4,8
    83004308:	0307d793          	srli	a5,a5,0x30
    8300430c:	f6069ae3          	bnez	a3,83004280 <__swsetup_r+0x40>
    83004310:	0107f693          	andi	a3,a5,16
    83004314:	08068663          	beqz	a3,830043a0 <__swsetup_r+0x160>
    83004318:	0047f793          	andi	a5,a5,4
    8300431c:	04079663          	bnez	a5,83004368 <__swsetup_r+0x128>
    83004320:	01843683          	ld	a3,24(s0)
    83004324:	00876713          	ori	a4,a4,8
    83004328:	03071793          	slli	a5,a4,0x30
    8300432c:	00e41823          	sh	a4,16(s0)
    83004330:	0307d793          	srli	a5,a5,0x30
    83004334:	f4069ae3          	bnez	a3,83004288 <__swsetup_r+0x48>
    83004338:	2807f613          	andi	a2,a5,640
    8300433c:	20000593          	li	a1,512
    83004340:	f4b604e3          	beq	a2,a1,83004288 <__swsetup_r+0x48>
    83004344:	00040593          	mv	a1,s0
    83004348:	00048513          	mv	a0,s1
    8300434c:	00002097          	auipc	ra,0x2
    83004350:	024080e7          	jalr	36(ra) # 83006370 <__smakebuf_r>
    83004354:	01041703          	lh	a4,16(s0)
    83004358:	01843683          	ld	a3,24(s0)
    8300435c:	03071793          	slli	a5,a4,0x30
    83004360:	0307d793          	srli	a5,a5,0x30
    83004364:	f25ff06f          	j	83004288 <__swsetup_r+0x48>
    83004368:	05843583          	ld	a1,88(s0)
    8300436c:	02058063          	beqz	a1,8300438c <__swsetup_r+0x14c>
    83004370:	07440793          	addi	a5,s0,116
    83004374:	00f58a63          	beq	a1,a5,83004388 <__swsetup_r+0x148>
    83004378:	00048513          	mv	a0,s1
    8300437c:	00001097          	auipc	ra,0x1
    83004380:	b10080e7          	jalr	-1264(ra) # 83004e8c <_free_r>
    83004384:	01041703          	lh	a4,16(s0)
    83004388:	04043c23          	sd	zero,88(s0)
    8300438c:	01843683          	ld	a3,24(s0)
    83004390:	fdb77713          	andi	a4,a4,-37
    83004394:	00042423          	sw	zero,8(s0)
    83004398:	00d43023          	sd	a3,0(s0)
    8300439c:	f89ff06f          	j	83004324 <__swsetup_r+0xe4>
    830043a0:	00900793          	li	a5,9
    830043a4:	00f4a023          	sw	a5,0(s1)
    830043a8:	04076713          	ori	a4,a4,64
    830043ac:	00e41823          	sh	a4,16(s0)
    830043b0:	fff00513          	li	a0,-1
    830043b4:	ef5ff06f          	j	830042a8 <__swsetup_r+0x68>

00000000830043b8 <_read_r>:
    830043b8:	ff010113          	addi	sp,sp,-16
    830043bc:	00058713          	mv	a4,a1
    830043c0:	00813023          	sd	s0,0(sp)
    830043c4:	00060593          	mv	a1,a2
    830043c8:	00050413          	mv	s0,a0
    830043cc:	00068613          	mv	a2,a3
    830043d0:	00070513          	mv	a0,a4
    830043d4:	00006797          	auipc	a5,0x6
    830043d8:	2a07a623          	sw	zero,684(a5) # 8300a680 <errno>
    830043dc:	00113423          	sd	ra,8(sp)
    830043e0:	00003097          	auipc	ra,0x3
    830043e4:	d74080e7          	jalr	-652(ra) # 83007154 <_read>
    830043e8:	fff00793          	li	a5,-1
    830043ec:	00f50a63          	beq	a0,a5,83004400 <_read_r+0x48>
    830043f0:	00813083          	ld	ra,8(sp)
    830043f4:	00013403          	ld	s0,0(sp)
    830043f8:	01010113          	addi	sp,sp,16
    830043fc:	00008067          	ret
    83004400:	00006797          	auipc	a5,0x6
    83004404:	2807a783          	lw	a5,640(a5) # 8300a680 <errno>
    83004408:	fe0784e3          	beqz	a5,830043f0 <_read_r+0x38>
    8300440c:	00813083          	ld	ra,8(sp)
    83004410:	00f42023          	sw	a5,0(s0)
    83004414:	00013403          	ld	s0,0(sp)
    83004418:	01010113          	addi	sp,sp,16
    8300441c:	00008067          	ret

0000000083004420 <_malloc_r>:
    83004420:	fa010113          	addi	sp,sp,-96
    83004424:	04913423          	sd	s1,72(sp)
    83004428:	05213023          	sd	s2,64(sp)
    8300442c:	04113c23          	sd	ra,88(sp)
    83004430:	04813823          	sd	s0,80(sp)
    83004434:	03313c23          	sd	s3,56(sp)
    83004438:	03413823          	sd	s4,48(sp)
    8300443c:	03513423          	sd	s5,40(sp)
    83004440:	03613023          	sd	s6,32(sp)
    83004444:	01713c23          	sd	s7,24(sp)
    83004448:	01813823          	sd	s8,16(sp)
    8300444c:	01913423          	sd	s9,8(sp)
    83004450:	01758493          	addi	s1,a1,23
    83004454:	02e00793          	li	a5,46
    83004458:	00050913          	mv	s2,a0
    8300445c:	0697ea63          	bltu	a5,s1,830044d0 <_malloc_r+0xb0>
    83004460:	02000793          	li	a5,32
    83004464:	28b7ea63          	bltu	a5,a1,830046f8 <_malloc_r+0x2d8>
    83004468:	00001097          	auipc	ra,0x1
    8300446c:	8c4080e7          	jalr	-1852(ra) # 83004d2c <__malloc_lock>
    83004470:	02000493          	li	s1,32
    83004474:	05000793          	li	a5,80
    83004478:	00400613          	li	a2,4
    8300447c:	00006997          	auipc	s3,0x6
    83004480:	94498993          	addi	s3,s3,-1724 # 83009dc0 <__malloc_av_>
    83004484:	00f987b3          	add	a5,s3,a5
    83004488:	0087b403          	ld	s0,8(a5)
    8300448c:	ff078713          	addi	a4,a5,-16
    83004490:	2ae40463          	beq	s0,a4,83004738 <_malloc_r+0x318>
    83004494:	00843783          	ld	a5,8(s0)
    83004498:	01843683          	ld	a3,24(s0)
    8300449c:	01043603          	ld	a2,16(s0)
    830044a0:	ffc7f793          	andi	a5,a5,-4
    830044a4:	00f407b3          	add	a5,s0,a5
    830044a8:	0087b703          	ld	a4,8(a5)
    830044ac:	00d63c23          	sd	a3,24(a2)
    830044b0:	00c6b823          	sd	a2,16(a3)
    830044b4:	00176713          	ori	a4,a4,1
    830044b8:	00090513          	mv	a0,s2
    830044bc:	00e7b423          	sd	a4,8(a5)
    830044c0:	00001097          	auipc	ra,0x1
    830044c4:	870080e7          	jalr	-1936(ra) # 83004d30 <__malloc_unlock>
    830044c8:	01040513          	addi	a0,s0,16
    830044cc:	2380006f          	j	83004704 <_malloc_r+0x2e4>
    830044d0:	800007b7          	lui	a5,0x80000
    830044d4:	ff04f493          	andi	s1,s1,-16
    830044d8:	fff7c793          	not	a5,a5
    830044dc:	2097ee63          	bltu	a5,s1,830046f8 <_malloc_r+0x2d8>
    830044e0:	20b4ec63          	bltu	s1,a1,830046f8 <_malloc_r+0x2d8>
    830044e4:	00001097          	auipc	ra,0x1
    830044e8:	848080e7          	jalr	-1976(ra) # 83004d2c <__malloc_lock>
    830044ec:	1f700793          	li	a5,503
    830044f0:	5097fe63          	bgeu	a5,s1,83004a0c <_malloc_r+0x5ec>
    830044f4:	0094d793          	srli	a5,s1,0x9
    830044f8:	36078c63          	beqz	a5,83004870 <_malloc_r+0x450>
    830044fc:	00400713          	li	a4,4
    83004500:	44f76063          	bltu	a4,a5,83004940 <_malloc_r+0x520>
    83004504:	0064d793          	srli	a5,s1,0x6
    83004508:	0397861b          	addiw	a2,a5,57 # ffffffff80000039 <__BSS_END__+0xfffffffefcff53b9>
    8300450c:	0016169b          	slliw	a3,a2,0x1
    83004510:	0387851b          	addiw	a0,a5,56
    83004514:	00369693          	slli	a3,a3,0x3
    83004518:	00006997          	auipc	s3,0x6
    8300451c:	8a898993          	addi	s3,s3,-1880 # 83009dc0 <__malloc_av_>
    83004520:	00d986b3          	add	a3,s3,a3
    83004524:	0086b403          	ld	s0,8(a3)
    83004528:	ff068693          	addi	a3,a3,-16
    8300452c:	20868c63          	beq	a3,s0,83004744 <_malloc_r+0x324>
    83004530:	01f00593          	li	a1,31
    83004534:	0100006f          	j	83004544 <_malloc_r+0x124>
    83004538:	38075c63          	bgez	a4,830048d0 <_malloc_r+0x4b0>
    8300453c:	01843403          	ld	s0,24(s0)
    83004540:	20868263          	beq	a3,s0,83004744 <_malloc_r+0x324>
    83004544:	00843783          	ld	a5,8(s0)
    83004548:	ffc7f793          	andi	a5,a5,-4
    8300454c:	40978733          	sub	a4,a5,s1
    83004550:	fee5d4e3          	bge	a1,a4,83004538 <_malloc_r+0x118>
    83004554:	0209b403          	ld	s0,32(s3)
    83004558:	00006897          	auipc	a7,0x6
    8300455c:	87888893          	addi	a7,a7,-1928 # 83009dd0 <__malloc_av_+0x10>
    83004560:	00050613          	mv	a2,a0
    83004564:	1f141863          	bne	s0,a7,83004754 <_malloc_r+0x334>
    83004568:	0089b783          	ld	a5,8(s3)
    8300456c:	4026571b          	sraiw	a4,a2,0x2
    83004570:	00100593          	li	a1,1
    83004574:	00e595b3          	sll	a1,a1,a4
    83004578:	24b7fc63          	bgeu	a5,a1,830047d0 <_malloc_r+0x3b0>
    8300457c:	0109b403          	ld	s0,16(s3)
    83004580:	00843a83          	ld	s5,8(s0)
    83004584:	ffcafa93          	andi	s5,s5,-4
    83004588:	009ae863          	bltu	s5,s1,83004598 <_malloc_r+0x178>
    8300458c:	409a87b3          	sub	a5,s5,s1
    83004590:	01f00713          	li	a4,31
    83004594:	30f74863          	blt	a4,a5,830048a4 <_malloc_r+0x484>
    83004598:	00006c97          	auipc	s9,0x6
    8300459c:	0b0c8c93          	addi	s9,s9,176 # 8300a648 <__malloc_sbrk_base>
    830045a0:	000cb703          	ld	a4,0(s9)
    830045a4:	00006a17          	auipc	s4,0x6
    830045a8:	0d4a3a03          	ld	s4,212(s4) # 8300a678 <__malloc_top_pad>
    830045ac:	fff00793          	li	a5,-1
    830045b0:	01540bb3          	add	s7,s0,s5
    830045b4:	01448a33          	add	s4,s1,s4
    830045b8:	52f70063          	beq	a4,a5,83004ad8 <_malloc_r+0x6b8>
    830045bc:	000017b7          	lui	a5,0x1
    830045c0:	01f78793          	addi	a5,a5,31 # 101f <main-0x82fff101>
    830045c4:	00fa0a33          	add	s4,s4,a5
    830045c8:	fffff7b7          	lui	a5,0xfffff
    830045cc:	00fa7a33          	and	s4,s4,a5
    830045d0:	000a0593          	mv	a1,s4
    830045d4:	00090513          	mv	a0,s2
    830045d8:	00002097          	auipc	ra,0x2
    830045dc:	0b4080e7          	jalr	180(ra) # 8300668c <_sbrk_r>
    830045e0:	fff00793          	li	a5,-1
    830045e4:	00050b13          	mv	s6,a0
    830045e8:	44f50c63          	beq	a0,a5,83004a40 <_malloc_r+0x620>
    830045ec:	45756863          	bltu	a0,s7,83004a3c <_malloc_r+0x61c>
    830045f0:	00006c17          	auipc	s8,0x6
    830045f4:	668c0c13          	addi	s8,s8,1640 # 8300ac58 <__malloc_current_mallinfo>
    830045f8:	000c2703          	lw	a4,0(s8)
    830045fc:	014707bb          	addw	a5,a4,s4
    83004600:	00fc2023          	sw	a5,0(s8)
    83004604:	00078693          	mv	a3,a5
    83004608:	56ab8e63          	beq	s7,a0,83004b84 <_malloc_r+0x764>
    8300460c:	000cb703          	ld	a4,0(s9)
    83004610:	fff00793          	li	a5,-1
    83004614:	58f70663          	beq	a4,a5,83004ba0 <_malloc_r+0x780>
    83004618:	417b07b3          	sub	a5,s6,s7
    8300461c:	00d787bb          	addw	a5,a5,a3
    83004620:	00fc2023          	sw	a5,0(s8)
    83004624:	00fb7c93          	andi	s9,s6,15
    83004628:	4c0c8a63          	beqz	s9,83004afc <_malloc_r+0x6dc>
    8300462c:	000017b7          	lui	a5,0x1
    83004630:	419b0b33          	sub	s6,s6,s9
    83004634:	01078b93          	addi	s7,a5,16 # 1010 <main-0x82fff110>
    83004638:	010b0b13          	addi	s6,s6,16
    8300463c:	419b8bb3          	sub	s7,s7,s9
    83004640:	014b0a33          	add	s4,s6,s4
    83004644:	fff78793          	addi	a5,a5,-1
    83004648:	414b8bb3          	sub	s7,s7,s4
    8300464c:	00fbfbb3          	and	s7,s7,a5
    83004650:	000b8593          	mv	a1,s7
    83004654:	00090513          	mv	a0,s2
    83004658:	00002097          	auipc	ra,0x2
    8300465c:	034080e7          	jalr	52(ra) # 8300668c <_sbrk_r>
    83004660:	fff00793          	li	a5,-1
    83004664:	58f50c63          	beq	a0,a5,83004bfc <_malloc_r+0x7dc>
    83004668:	41650533          	sub	a0,a0,s6
    8300466c:	000b871b          	sext.w	a4,s7
    83004670:	01750a33          	add	s4,a0,s7
    83004674:	000c2783          	lw	a5,0(s8)
    83004678:	0169b823          	sd	s6,16(s3)
    8300467c:	001a6a13          	ori	s4,s4,1
    83004680:	00e787bb          	addw	a5,a5,a4
    83004684:	00fc2023          	sw	a5,0(s8)
    83004688:	014b3423          	sd	s4,8(s6)
    8300468c:	51340e63          	beq	s0,s3,83004ba8 <_malloc_r+0x788>
    83004690:	01f00613          	li	a2,31
    83004694:	51567e63          	bgeu	a2,s5,83004bb0 <_malloc_r+0x790>
    83004698:	00843683          	ld	a3,8(s0)
    8300469c:	fe8a8713          	addi	a4,s5,-24
    830046a0:	ff077713          	andi	a4,a4,-16
    830046a4:	0016f693          	andi	a3,a3,1
    830046a8:	00e6e6b3          	or	a3,a3,a4
    830046ac:	00d43423          	sd	a3,8(s0)
    830046b0:	00900593          	li	a1,9
    830046b4:	00e406b3          	add	a3,s0,a4
    830046b8:	00b6b423          	sd	a1,8(a3)
    830046bc:	00b6b823          	sd	a1,16(a3)
    830046c0:	54e66863          	bltu	a2,a4,83004c10 <_malloc_r+0x7f0>
    830046c4:	008b3a03          	ld	s4,8(s6)
    830046c8:	000b0413          	mv	s0,s6
    830046cc:	00006717          	auipc	a4,0x6
    830046d0:	fa470713          	addi	a4,a4,-92 # 8300a670 <__malloc_max_sbrked_mem>
    830046d4:	00073683          	ld	a3,0(a4)
    830046d8:	00f6f463          	bgeu	a3,a5,830046e0 <_malloc_r+0x2c0>
    830046dc:	00f73023          	sd	a5,0(a4)
    830046e0:	00006717          	auipc	a4,0x6
    830046e4:	f8870713          	addi	a4,a4,-120 # 8300a668 <__malloc_max_total_mem>
    830046e8:	00073683          	ld	a3,0(a4)
    830046ec:	34f6fe63          	bgeu	a3,a5,83004a48 <_malloc_r+0x628>
    830046f0:	00f73023          	sd	a5,0(a4)
    830046f4:	3540006f          	j	83004a48 <_malloc_r+0x628>
    830046f8:	00c00793          	li	a5,12
    830046fc:	00f92023          	sw	a5,0(s2)
    83004700:	00000513          	li	a0,0
    83004704:	05813083          	ld	ra,88(sp)
    83004708:	05013403          	ld	s0,80(sp)
    8300470c:	04813483          	ld	s1,72(sp)
    83004710:	04013903          	ld	s2,64(sp)
    83004714:	03813983          	ld	s3,56(sp)
    83004718:	03013a03          	ld	s4,48(sp)
    8300471c:	02813a83          	ld	s5,40(sp)
    83004720:	02013b03          	ld	s6,32(sp)
    83004724:	01813b83          	ld	s7,24(sp)
    83004728:	01013c03          	ld	s8,16(sp)
    8300472c:	00813c83          	ld	s9,8(sp)
    83004730:	06010113          	addi	sp,sp,96
    83004734:	00008067          	ret
    83004738:	0187b403          	ld	s0,24(a5)
    8300473c:	0026061b          	addiw	a2,a2,2
    83004740:	d4879ae3          	bne	a5,s0,83004494 <_malloc_r+0x74>
    83004744:	0209b403          	ld	s0,32(s3)
    83004748:	00005897          	auipc	a7,0x5
    8300474c:	68888893          	addi	a7,a7,1672 # 83009dd0 <__malloc_av_+0x10>
    83004750:	e1140ce3          	beq	s0,a7,83004568 <_malloc_r+0x148>
    83004754:	00843783          	ld	a5,8(s0)
    83004758:	01f00693          	li	a3,31
    8300475c:	ffc7f793          	andi	a5,a5,-4
    83004760:	40978733          	sub	a4,a5,s1
    83004764:	26e6c463          	blt	a3,a4,830049cc <_malloc_r+0x5ac>
    83004768:	0319b423          	sd	a7,40(s3)
    8300476c:	0319b023          	sd	a7,32(s3)
    83004770:	10075863          	bgez	a4,83004880 <_malloc_r+0x460>
    83004774:	1ff00713          	li	a4,511
    83004778:	16f76263          	bltu	a4,a5,830048dc <_malloc_r+0x4bc>
    8300477c:	0037d793          	srli	a5,a5,0x3
    83004780:	0017871b          	addiw	a4,a5,1
    83004784:	0017171b          	slliw	a4,a4,0x1
    83004788:	00371713          	slli	a4,a4,0x3
    8300478c:	0089b503          	ld	a0,8(s3)
    83004790:	00e98733          	add	a4,s3,a4
    83004794:	00073583          	ld	a1,0(a4)
    83004798:	4027d69b          	sraiw	a3,a5,0x2
    8300479c:	00100793          	li	a5,1
    830047a0:	00d797b3          	sll	a5,a5,a3
    830047a4:	00a7e7b3          	or	a5,a5,a0
    830047a8:	ff070693          	addi	a3,a4,-16
    830047ac:	00d43c23          	sd	a3,24(s0)
    830047b0:	00b43823          	sd	a1,16(s0)
    830047b4:	00f9b423          	sd	a5,8(s3)
    830047b8:	00873023          	sd	s0,0(a4)
    830047bc:	0085bc23          	sd	s0,24(a1)
    830047c0:	4026571b          	sraiw	a4,a2,0x2
    830047c4:	00100593          	li	a1,1
    830047c8:	00e595b3          	sll	a1,a1,a4
    830047cc:	dab7e8e3          	bltu	a5,a1,8300457c <_malloc_r+0x15c>
    830047d0:	00f5f733          	and	a4,a1,a5
    830047d4:	02071463          	bnez	a4,830047fc <_malloc_r+0x3dc>
    830047d8:	00159593          	slli	a1,a1,0x1
    830047dc:	ffc67613          	andi	a2,a2,-4
    830047e0:	00f5f733          	and	a4,a1,a5
    830047e4:	0046061b          	addiw	a2,a2,4
    830047e8:	00071a63          	bnez	a4,830047fc <_malloc_r+0x3dc>
    830047ec:	00159593          	slli	a1,a1,0x1
    830047f0:	00f5f733          	and	a4,a1,a5
    830047f4:	0046061b          	addiw	a2,a2,4
    830047f8:	fe070ae3          	beqz	a4,830047ec <_malloc_r+0x3cc>
    830047fc:	01f00813          	li	a6,31
    83004800:	0016031b          	addiw	t1,a2,1
    83004804:	0013131b          	slliw	t1,t1,0x1
    83004808:	00331313          	slli	t1,t1,0x3
    8300480c:	ff030313          	addi	t1,t1,-16
    83004810:	00698333          	add	t1,s3,t1
    83004814:	00030513          	mv	a0,t1
    83004818:	01853783          	ld	a5,24(a0)
    8300481c:	00060e13          	mv	t3,a2
    83004820:	14f50463          	beq	a0,a5,83004968 <_malloc_r+0x548>
    83004824:	0087b703          	ld	a4,8(a5)
    83004828:	00078413          	mv	s0,a5
    8300482c:	0187b783          	ld	a5,24(a5)
    83004830:	ffc77713          	andi	a4,a4,-4
    83004834:	409706b3          	sub	a3,a4,s1
    83004838:	14d84463          	blt	a6,a3,83004980 <_malloc_r+0x560>
    8300483c:	fe06c2e3          	bltz	a3,83004820 <_malloc_r+0x400>
    83004840:	00e40733          	add	a4,s0,a4
    83004844:	00873683          	ld	a3,8(a4)
    83004848:	01043603          	ld	a2,16(s0)
    8300484c:	00090513          	mv	a0,s2
    83004850:	0016e693          	ori	a3,a3,1
    83004854:	00d73423          	sd	a3,8(a4)
    83004858:	00f63c23          	sd	a5,24(a2)
    8300485c:	00c7b823          	sd	a2,16(a5)
    83004860:	00000097          	auipc	ra,0x0
    83004864:	4d0080e7          	jalr	1232(ra) # 83004d30 <__malloc_unlock>
    83004868:	01040513          	addi	a0,s0,16
    8300486c:	e99ff06f          	j	83004704 <_malloc_r+0x2e4>
    83004870:	40000693          	li	a3,1024
    83004874:	04000613          	li	a2,64
    83004878:	03f00513          	li	a0,63
    8300487c:	c9dff06f          	j	83004518 <_malloc_r+0xf8>
    83004880:	00f407b3          	add	a5,s0,a5
    83004884:	0087b703          	ld	a4,8(a5)
    83004888:	00090513          	mv	a0,s2
    8300488c:	00176713          	ori	a4,a4,1
    83004890:	00e7b423          	sd	a4,8(a5)
    83004894:	00000097          	auipc	ra,0x0
    83004898:	49c080e7          	jalr	1180(ra) # 83004d30 <__malloc_unlock>
    8300489c:	01040513          	addi	a0,s0,16
    830048a0:	e65ff06f          	j	83004704 <_malloc_r+0x2e4>
    830048a4:	0014e713          	ori	a4,s1,1
    830048a8:	00e43423          	sd	a4,8(s0)
    830048ac:	009404b3          	add	s1,s0,s1
    830048b0:	0099b823          	sd	s1,16(s3)
    830048b4:	0017e793          	ori	a5,a5,1
    830048b8:	00090513          	mv	a0,s2
    830048bc:	00f4b423          	sd	a5,8(s1)
    830048c0:	00000097          	auipc	ra,0x0
    830048c4:	470080e7          	jalr	1136(ra) # 83004d30 <__malloc_unlock>
    830048c8:	01040513          	addi	a0,s0,16
    830048cc:	e39ff06f          	j	83004704 <_malloc_r+0x2e4>
    830048d0:	01843683          	ld	a3,24(s0)
    830048d4:	01043603          	ld	a2,16(s0)
    830048d8:	bcdff06f          	j	830044a4 <_malloc_r+0x84>
    830048dc:	0097d713          	srli	a4,a5,0x9
    830048e0:	00400693          	li	a3,4
    830048e4:	14e6f063          	bgeu	a3,a4,83004a24 <_malloc_r+0x604>
    830048e8:	01400693          	li	a3,20
    830048ec:	24e6e063          	bltu	a3,a4,83004b2c <_malloc_r+0x70c>
    830048f0:	05c7059b          	addiw	a1,a4,92
    830048f4:	0015959b          	slliw	a1,a1,0x1
    830048f8:	05b7069b          	addiw	a3,a4,91
    830048fc:	00359593          	slli	a1,a1,0x3
    83004900:	00b985b3          	add	a1,s3,a1
    83004904:	0005b703          	ld	a4,0(a1)
    83004908:	ff058593          	addi	a1,a1,-16
    8300490c:	1ce58a63          	beq	a1,a4,83004ae0 <_malloc_r+0x6c0>
    83004910:	00873683          	ld	a3,8(a4)
    83004914:	ffc6f693          	andi	a3,a3,-4
    83004918:	00d7f663          	bgeu	a5,a3,83004924 <_malloc_r+0x504>
    8300491c:	01073703          	ld	a4,16(a4)
    83004920:	fee598e3          	bne	a1,a4,83004910 <_malloc_r+0x4f0>
    83004924:	01873583          	ld	a1,24(a4)
    83004928:	0089b783          	ld	a5,8(s3)
    8300492c:	00b43c23          	sd	a1,24(s0)
    83004930:	00e43823          	sd	a4,16(s0)
    83004934:	0085b823          	sd	s0,16(a1)
    83004938:	00873c23          	sd	s0,24(a4)
    8300493c:	e85ff06f          	j	830047c0 <_malloc_r+0x3a0>
    83004940:	01400713          	li	a4,20
    83004944:	12f77663          	bgeu	a4,a5,83004a70 <_malloc_r+0x650>
    83004948:	05400713          	li	a4,84
    8300494c:	20f76063          	bltu	a4,a5,83004b4c <_malloc_r+0x72c>
    83004950:	00c4d793          	srli	a5,s1,0xc
    83004954:	06f7861b          	addiw	a2,a5,111
    83004958:	0016169b          	slliw	a3,a2,0x1
    8300495c:	06e7851b          	addiw	a0,a5,110
    83004960:	00369693          	slli	a3,a3,0x3
    83004964:	bb5ff06f          	j	83004518 <_malloc_r+0xf8>
    83004968:	001e0e1b          	addiw	t3,t3,1
    8300496c:	003e7793          	andi	a5,t3,3
    83004970:	01050513          	addi	a0,a0,16
    83004974:	10078e63          	beqz	a5,83004a90 <_malloc_r+0x670>
    83004978:	01853783          	ld	a5,24(a0)
    8300497c:	ea5ff06f          	j	83004820 <_malloc_r+0x400>
    83004980:	01043603          	ld	a2,16(s0)
    83004984:	0014e593          	ori	a1,s1,1
    83004988:	00b43423          	sd	a1,8(s0)
    8300498c:	00f63c23          	sd	a5,24(a2)
    83004990:	00c7b823          	sd	a2,16(a5)
    83004994:	009404b3          	add	s1,s0,s1
    83004998:	0299b423          	sd	s1,40(s3)
    8300499c:	0299b023          	sd	s1,32(s3)
    830049a0:	0016e793          	ori	a5,a3,1
    830049a4:	0114bc23          	sd	a7,24(s1)
    830049a8:	0114b823          	sd	a7,16(s1)
    830049ac:	00f4b423          	sd	a5,8(s1)
    830049b0:	00e40733          	add	a4,s0,a4
    830049b4:	00090513          	mv	a0,s2
    830049b8:	00d73023          	sd	a3,0(a4)
    830049bc:	00000097          	auipc	ra,0x0
    830049c0:	374080e7          	jalr	884(ra) # 83004d30 <__malloc_unlock>
    830049c4:	01040513          	addi	a0,s0,16
    830049c8:	d3dff06f          	j	83004704 <_malloc_r+0x2e4>
    830049cc:	0014e693          	ori	a3,s1,1
    830049d0:	00d43423          	sd	a3,8(s0)
    830049d4:	009404b3          	add	s1,s0,s1
    830049d8:	0299b423          	sd	s1,40(s3)
    830049dc:	0299b023          	sd	s1,32(s3)
    830049e0:	00176693          	ori	a3,a4,1
    830049e4:	0114bc23          	sd	a7,24(s1)
    830049e8:	0114b823          	sd	a7,16(s1)
    830049ec:	00d4b423          	sd	a3,8(s1)
    830049f0:	00f407b3          	add	a5,s0,a5
    830049f4:	00090513          	mv	a0,s2
    830049f8:	00e7b023          	sd	a4,0(a5)
    830049fc:	00000097          	auipc	ra,0x0
    83004a00:	334080e7          	jalr	820(ra) # 83004d30 <__malloc_unlock>
    83004a04:	01040513          	addi	a0,s0,16
    83004a08:	cfdff06f          	j	83004704 <_malloc_r+0x2e4>
    83004a0c:	0034d613          	srli	a2,s1,0x3
    83004a10:	0016079b          	addiw	a5,a2,1
    83004a14:	0017979b          	slliw	a5,a5,0x1
    83004a18:	0006061b          	sext.w	a2,a2
    83004a1c:	00379793          	slli	a5,a5,0x3
    83004a20:	a5dff06f          	j	8300447c <_malloc_r+0x5c>
    83004a24:	0067d713          	srli	a4,a5,0x6
    83004a28:	0397059b          	addiw	a1,a4,57
    83004a2c:	0015959b          	slliw	a1,a1,0x1
    83004a30:	0387069b          	addiw	a3,a4,56
    83004a34:	00359593          	slli	a1,a1,0x3
    83004a38:	ec9ff06f          	j	83004900 <_malloc_r+0x4e0>
    83004a3c:	13340863          	beq	s0,s3,83004b6c <_malloc_r+0x74c>
    83004a40:	0109b403          	ld	s0,16(s3)
    83004a44:	00843a03          	ld	s4,8(s0)
    83004a48:	ffca7a13          	andi	s4,s4,-4
    83004a4c:	409a07b3          	sub	a5,s4,s1
    83004a50:	009a6663          	bltu	s4,s1,83004a5c <_malloc_r+0x63c>
    83004a54:	01f00713          	li	a4,31
    83004a58:	e4f746e3          	blt	a4,a5,830048a4 <_malloc_r+0x484>
    83004a5c:	00090513          	mv	a0,s2
    83004a60:	00000097          	auipc	ra,0x0
    83004a64:	2d0080e7          	jalr	720(ra) # 83004d30 <__malloc_unlock>
    83004a68:	00000513          	li	a0,0
    83004a6c:	c99ff06f          	j	83004704 <_malloc_r+0x2e4>
    83004a70:	05c7861b          	addiw	a2,a5,92
    83004a74:	0016169b          	slliw	a3,a2,0x1
    83004a78:	05b7851b          	addiw	a0,a5,91
    83004a7c:	00369693          	slli	a3,a3,0x3
    83004a80:	a99ff06f          	j	83004518 <_malloc_r+0xf8>
    83004a84:	01033783          	ld	a5,16(t1)
    83004a88:	fff6061b          	addiw	a2,a2,-1
    83004a8c:	1e679063          	bne	a5,t1,83004c6c <_malloc_r+0x84c>
    83004a90:	00367793          	andi	a5,a2,3
    83004a94:	ff030313          	addi	t1,t1,-16
    83004a98:	fe0796e3          	bnez	a5,83004a84 <_malloc_r+0x664>
    83004a9c:	0089b703          	ld	a4,8(s3)
    83004aa0:	fff5c793          	not	a5,a1
    83004aa4:	00e7f7b3          	and	a5,a5,a4
    83004aa8:	00f9b423          	sd	a5,8(s3)
    83004aac:	00159593          	slli	a1,a1,0x1
    83004ab0:	acb7e6e3          	bltu	a5,a1,8300457c <_malloc_r+0x15c>
    83004ab4:	ac0584e3          	beqz	a1,8300457c <_malloc_r+0x15c>
    83004ab8:	00f5f733          	and	a4,a1,a5
    83004abc:	00071a63          	bnez	a4,83004ad0 <_malloc_r+0x6b0>
    83004ac0:	00159593          	slli	a1,a1,0x1
    83004ac4:	00f5f733          	and	a4,a1,a5
    83004ac8:	004e0e1b          	addiw	t3,t3,4
    83004acc:	fe070ae3          	beqz	a4,83004ac0 <_malloc_r+0x6a0>
    83004ad0:	000e0613          	mv	a2,t3
    83004ad4:	d2dff06f          	j	83004800 <_malloc_r+0x3e0>
    83004ad8:	020a0a13          	addi	s4,s4,32
    83004adc:	af5ff06f          	j	830045d0 <_malloc_r+0x1b0>
    83004ae0:	0089b503          	ld	a0,8(s3)
    83004ae4:	4026d69b          	sraiw	a3,a3,0x2
    83004ae8:	00100793          	li	a5,1
    83004aec:	00d797b3          	sll	a5,a5,a3
    83004af0:	00a7e7b3          	or	a5,a5,a0
    83004af4:	00f9b423          	sd	a5,8(s3)
    83004af8:	e35ff06f          	j	8300492c <_malloc_r+0x50c>
    83004afc:	014b0bb3          	add	s7,s6,s4
    83004b00:	41700bb3          	neg	s7,s7
    83004b04:	034b9b93          	slli	s7,s7,0x34
    83004b08:	034bdb93          	srli	s7,s7,0x34
    83004b0c:	000b8593          	mv	a1,s7
    83004b10:	00090513          	mv	a0,s2
    83004b14:	00002097          	auipc	ra,0x2
    83004b18:	b78080e7          	jalr	-1160(ra) # 8300668c <_sbrk_r>
    83004b1c:	fff00793          	li	a5,-1
    83004b20:	00000713          	li	a4,0
    83004b24:	b4f512e3          	bne	a0,a5,83004668 <_malloc_r+0x248>
    83004b28:	b4dff06f          	j	83004674 <_malloc_r+0x254>
    83004b2c:	05400693          	li	a3,84
    83004b30:	08e6e663          	bltu	a3,a4,83004bbc <_malloc_r+0x79c>
    83004b34:	00c7d713          	srli	a4,a5,0xc
    83004b38:	06f7059b          	addiw	a1,a4,111
    83004b3c:	0015959b          	slliw	a1,a1,0x1
    83004b40:	06e7069b          	addiw	a3,a4,110
    83004b44:	00359593          	slli	a1,a1,0x3
    83004b48:	db9ff06f          	j	83004900 <_malloc_r+0x4e0>
    83004b4c:	15400713          	li	a4,340
    83004b50:	08f76663          	bltu	a4,a5,83004bdc <_malloc_r+0x7bc>
    83004b54:	00f4d793          	srli	a5,s1,0xf
    83004b58:	0787861b          	addiw	a2,a5,120
    83004b5c:	0016169b          	slliw	a3,a2,0x1
    83004b60:	0777851b          	addiw	a0,a5,119
    83004b64:	00369693          	slli	a3,a3,0x3
    83004b68:	9b1ff06f          	j	83004518 <_malloc_r+0xf8>
    83004b6c:	00006c17          	auipc	s8,0x6
    83004b70:	0ecc0c13          	addi	s8,s8,236 # 8300ac58 <__malloc_current_mallinfo>
    83004b74:	000c2783          	lw	a5,0(s8)
    83004b78:	014786bb          	addw	a3,a5,s4
    83004b7c:	00dc2023          	sw	a3,0(s8)
    83004b80:	a8dff06f          	j	8300460c <_malloc_r+0x1ec>
    83004b84:	034b9713          	slli	a4,s7,0x34
    83004b88:	a80712e3          	bnez	a4,8300460c <_malloc_r+0x1ec>
    83004b8c:	0109b403          	ld	s0,16(s3)
    83004b90:	014a8a33          	add	s4,s5,s4
    83004b94:	001a6a13          	ori	s4,s4,1
    83004b98:	01443423          	sd	s4,8(s0)
    83004b9c:	b31ff06f          	j	830046cc <_malloc_r+0x2ac>
    83004ba0:	016cb023          	sd	s6,0(s9)
    83004ba4:	a81ff06f          	j	83004624 <_malloc_r+0x204>
    83004ba8:	000b0413          	mv	s0,s6
    83004bac:	b21ff06f          	j	830046cc <_malloc_r+0x2ac>
    83004bb0:	00100793          	li	a5,1
    83004bb4:	00fb3423          	sd	a5,8(s6)
    83004bb8:	ea5ff06f          	j	83004a5c <_malloc_r+0x63c>
    83004bbc:	15400693          	li	a3,340
    83004bc0:	06e6e863          	bltu	a3,a4,83004c30 <_malloc_r+0x810>
    83004bc4:	00f7d713          	srli	a4,a5,0xf
    83004bc8:	0787059b          	addiw	a1,a4,120
    83004bcc:	0015959b          	slliw	a1,a1,0x1
    83004bd0:	0777069b          	addiw	a3,a4,119
    83004bd4:	00359593          	slli	a1,a1,0x3
    83004bd8:	d29ff06f          	j	83004900 <_malloc_r+0x4e0>
    83004bdc:	55400713          	li	a4,1364
    83004be0:	06f76863          	bltu	a4,a5,83004c50 <_malloc_r+0x830>
    83004be4:	0124d793          	srli	a5,s1,0x12
    83004be8:	07d7861b          	addiw	a2,a5,125
    83004bec:	0016169b          	slliw	a3,a2,0x1
    83004bf0:	07c7851b          	addiw	a0,a5,124
    83004bf4:	00369693          	slli	a3,a3,0x3
    83004bf8:	921ff06f          	j	83004518 <_malloc_r+0xf8>
    83004bfc:	ff0c8c93          	addi	s9,s9,-16
    83004c00:	019a0a33          	add	s4,s4,s9
    83004c04:	416a0a33          	sub	s4,s4,s6
    83004c08:	00000713          	li	a4,0
    83004c0c:	a69ff06f          	j	83004674 <_malloc_r+0x254>
    83004c10:	01040593          	addi	a1,s0,16
    83004c14:	00090513          	mv	a0,s2
    83004c18:	00000097          	auipc	ra,0x0
    83004c1c:	274080e7          	jalr	628(ra) # 83004e8c <_free_r>
    83004c20:	0109b403          	ld	s0,16(s3)
    83004c24:	000c2783          	lw	a5,0(s8)
    83004c28:	00843a03          	ld	s4,8(s0)
    83004c2c:	aa1ff06f          	j	830046cc <_malloc_r+0x2ac>
    83004c30:	55400693          	li	a3,1364
    83004c34:	02e6e663          	bltu	a3,a4,83004c60 <_malloc_r+0x840>
    83004c38:	0127d713          	srli	a4,a5,0x12
    83004c3c:	07d7059b          	addiw	a1,a4,125
    83004c40:	0015959b          	slliw	a1,a1,0x1
    83004c44:	07c7069b          	addiw	a3,a4,124
    83004c48:	00359593          	slli	a1,a1,0x3
    83004c4c:	cb5ff06f          	j	83004900 <_malloc_r+0x4e0>
    83004c50:	7f000693          	li	a3,2032
    83004c54:	07f00613          	li	a2,127
    83004c58:	07e00513          	li	a0,126
    83004c5c:	8bdff06f          	j	83004518 <_malloc_r+0xf8>
    83004c60:	7f000593          	li	a1,2032
    83004c64:	07e00693          	li	a3,126
    83004c68:	c99ff06f          	j	83004900 <_malloc_r+0x4e0>
    83004c6c:	0089b783          	ld	a5,8(s3)
    83004c70:	e3dff06f          	j	83004aac <_malloc_r+0x68c>

0000000083004c74 <srand>:
    83004c74:	02051513          	slli	a0,a0,0x20
    83004c78:	02055513          	srli	a0,a0,0x20
    83004c7c:	00006797          	auipc	a5,0x6
    83004c80:	9c47b783          	ld	a5,-1596(a5) # 8300a640 <_impure_ptr>
    83004c84:	0ea7b423          	sd	a0,232(a5)
    83004c88:	00008067          	ret

0000000083004c8c <rand>:
    83004c8c:	00006617          	auipc	a2,0x6
    83004c90:	9b463603          	ld	a2,-1612(a2) # 8300a640 <_impure_ptr>
    83004c94:	0e863703          	ld	a4,232(a2)
    83004c98:	00471793          	slli	a5,a4,0x4
    83004c9c:	40e787b3          	sub	a5,a5,a4
    83004ca0:	00679693          	slli	a3,a5,0x6
    83004ca4:	40f686b3          	sub	a3,a3,a5
    83004ca8:	00769793          	slli	a5,a3,0x7
    83004cac:	00f686b3          	add	a3,a3,a5
    83004cb0:	00269693          	slli	a3,a3,0x2
    83004cb4:	00e686b3          	add	a3,a3,a4
    83004cb8:	00669793          	slli	a5,a3,0x6
    83004cbc:	40d787b3          	sub	a5,a5,a3
    83004cc0:	00779793          	slli	a5,a5,0x7
    83004cc4:	00e787b3          	add	a5,a5,a4
    83004cc8:	00279793          	slli	a5,a5,0x2
    83004ccc:	00e787b3          	add	a5,a5,a4
    83004cd0:	00379693          	slli	a3,a5,0x3
    83004cd4:	40f687b3          	sub	a5,a3,a5
    83004cd8:	00379693          	slli	a3,a5,0x3
    83004cdc:	40f686b3          	sub	a3,a3,a5
    83004ce0:	00669793          	slli	a5,a3,0x6
    83004ce4:	40d787b3          	sub	a5,a5,a3
    83004ce8:	00279793          	slli	a5,a5,0x2
    83004cec:	40e787b3          	sub	a5,a5,a4
    83004cf0:	00779793          	slli	a5,a5,0x7
    83004cf4:	40e787b3          	sub	a5,a5,a4
    83004cf8:	00279793          	slli	a5,a5,0x2
    83004cfc:	00e787b3          	add	a5,a5,a4
    83004d00:	00279793          	slli	a5,a5,0x2
    83004d04:	40e787b3          	sub	a5,a5,a4
    83004d08:	00279793          	slli	a5,a5,0x2
    83004d0c:	40e787b3          	sub	a5,a5,a4
    83004d10:	00279793          	slli	a5,a5,0x2
    83004d14:	00e787b3          	add	a5,a5,a4
    83004d18:	00178793          	addi	a5,a5,1
    83004d1c:	00179513          	slli	a0,a5,0x1
    83004d20:	0ef63423          	sd	a5,232(a2)
    83004d24:	02155513          	srli	a0,a0,0x21
    83004d28:	00008067          	ret

0000000083004d2c <__malloc_lock>:
    83004d2c:	00008067          	ret

0000000083004d30 <__malloc_unlock>:
    83004d30:	00008067          	ret

0000000083004d34 <_malloc_trim_r>:
    83004d34:	fd010113          	addi	sp,sp,-48
    83004d38:	02813023          	sd	s0,32(sp)
    83004d3c:	00913c23          	sd	s1,24(sp)
    83004d40:	01213823          	sd	s2,16(sp)
    83004d44:	01313423          	sd	s3,8(sp)
    83004d48:	01413023          	sd	s4,0(sp)
    83004d4c:	00058993          	mv	s3,a1
    83004d50:	02113423          	sd	ra,40(sp)
    83004d54:	00005a17          	auipc	s4,0x5
    83004d58:	06ca0a13          	addi	s4,s4,108 # 83009dc0 <__malloc_av_>
    83004d5c:	00050913          	mv	s2,a0
    83004d60:	00000097          	auipc	ra,0x0
    83004d64:	fcc080e7          	jalr	-52(ra) # 83004d2c <__malloc_lock>
    83004d68:	010a3703          	ld	a4,16(s4)
    83004d6c:	000017b7          	lui	a5,0x1
    83004d70:	fdf78413          	addi	s0,a5,-33 # fdf <main-0x82fff141>
    83004d74:	00873483          	ld	s1,8(a4)
    83004d78:	41340433          	sub	s0,s0,s3
    83004d7c:	ffc4f493          	andi	s1,s1,-4
    83004d80:	00940433          	add	s0,s0,s1
    83004d84:	00c45413          	srli	s0,s0,0xc
    83004d88:	fff40413          	addi	s0,s0,-1
    83004d8c:	00c41413          	slli	s0,s0,0xc
    83004d90:	02f44063          	blt	s0,a5,83004db0 <_malloc_trim_r+0x7c>
    83004d94:	00000593          	li	a1,0
    83004d98:	00090513          	mv	a0,s2
    83004d9c:	00002097          	auipc	ra,0x2
    83004da0:	8f0080e7          	jalr	-1808(ra) # 8300668c <_sbrk_r>
    83004da4:	010a3783          	ld	a5,16(s4)
    83004da8:	009787b3          	add	a5,a5,s1
    83004dac:	02f50a63          	beq	a0,a5,83004de0 <_malloc_trim_r+0xac>
    83004db0:	00090513          	mv	a0,s2
    83004db4:	00000097          	auipc	ra,0x0
    83004db8:	f7c080e7          	jalr	-132(ra) # 83004d30 <__malloc_unlock>
    83004dbc:	02813083          	ld	ra,40(sp)
    83004dc0:	02013403          	ld	s0,32(sp)
    83004dc4:	01813483          	ld	s1,24(sp)
    83004dc8:	01013903          	ld	s2,16(sp)
    83004dcc:	00813983          	ld	s3,8(sp)
    83004dd0:	00013a03          	ld	s4,0(sp)
    83004dd4:	00000513          	li	a0,0
    83004dd8:	03010113          	addi	sp,sp,48
    83004ddc:	00008067          	ret
    83004de0:	408005b3          	neg	a1,s0
    83004de4:	00090513          	mv	a0,s2
    83004de8:	00002097          	auipc	ra,0x2
    83004dec:	8a4080e7          	jalr	-1884(ra) # 8300668c <_sbrk_r>
    83004df0:	fff00793          	li	a5,-1
    83004df4:	04f50c63          	beq	a0,a5,83004e4c <_malloc_trim_r+0x118>
    83004df8:	00006717          	auipc	a4,0x6
    83004dfc:	e6070713          	addi	a4,a4,-416 # 8300ac58 <__malloc_current_mallinfo>
    83004e00:	00072783          	lw	a5,0(a4)
    83004e04:	010a3683          	ld	a3,16(s4)
    83004e08:	408484b3          	sub	s1,s1,s0
    83004e0c:	0014e493          	ori	s1,s1,1
    83004e10:	408787bb          	subw	a5,a5,s0
    83004e14:	00090513          	mv	a0,s2
    83004e18:	0096b423          	sd	s1,8(a3)
    83004e1c:	00f72023          	sw	a5,0(a4)
    83004e20:	00000097          	auipc	ra,0x0
    83004e24:	f10080e7          	jalr	-240(ra) # 83004d30 <__malloc_unlock>
    83004e28:	02813083          	ld	ra,40(sp)
    83004e2c:	02013403          	ld	s0,32(sp)
    83004e30:	01813483          	ld	s1,24(sp)
    83004e34:	01013903          	ld	s2,16(sp)
    83004e38:	00813983          	ld	s3,8(sp)
    83004e3c:	00013a03          	ld	s4,0(sp)
    83004e40:	00100513          	li	a0,1
    83004e44:	03010113          	addi	sp,sp,48
    83004e48:	00008067          	ret
    83004e4c:	00000593          	li	a1,0
    83004e50:	00090513          	mv	a0,s2
    83004e54:	00002097          	auipc	ra,0x2
    83004e58:	838080e7          	jalr	-1992(ra) # 8300668c <_sbrk_r>
    83004e5c:	010a3703          	ld	a4,16(s4)
    83004e60:	01f00693          	li	a3,31
    83004e64:	40e507b3          	sub	a5,a0,a4
    83004e68:	f4f6d4e3          	bge	a3,a5,83004db0 <_malloc_trim_r+0x7c>
    83004e6c:	00005697          	auipc	a3,0x5
    83004e70:	7dc6b683          	ld	a3,2012(a3) # 8300a648 <__malloc_sbrk_base>
    83004e74:	40d50533          	sub	a0,a0,a3
    83004e78:	0017e793          	ori	a5,a5,1
    83004e7c:	00006697          	auipc	a3,0x6
    83004e80:	dca6ae23          	sw	a0,-548(a3) # 8300ac58 <__malloc_current_mallinfo>
    83004e84:	00f73423          	sd	a5,8(a4)
    83004e88:	f29ff06f          	j	83004db0 <_malloc_trim_r+0x7c>

0000000083004e8c <_free_r>:
    83004e8c:	14058263          	beqz	a1,83004fd0 <_free_r+0x144>
    83004e90:	fe010113          	addi	sp,sp,-32
    83004e94:	00813823          	sd	s0,16(sp)
    83004e98:	00913423          	sd	s1,8(sp)
    83004e9c:	00058413          	mv	s0,a1
    83004ea0:	00050493          	mv	s1,a0
    83004ea4:	00113c23          	sd	ra,24(sp)
    83004ea8:	00000097          	auipc	ra,0x0
    83004eac:	e84080e7          	jalr	-380(ra) # 83004d2c <__malloc_lock>
    83004eb0:	ff843583          	ld	a1,-8(s0)
    83004eb4:	ff040713          	addi	a4,s0,-16
    83004eb8:	00005517          	auipc	a0,0x5
    83004ebc:	f0850513          	addi	a0,a0,-248 # 83009dc0 <__malloc_av_>
    83004ec0:	ffe5f793          	andi	a5,a1,-2
    83004ec4:	00f70633          	add	a2,a4,a5
    83004ec8:	00863683          	ld	a3,8(a2)
    83004ecc:	01053803          	ld	a6,16(a0)
    83004ed0:	ffc6f693          	andi	a3,a3,-4
    83004ed4:	1cc80663          	beq	a6,a2,830050a0 <_free_r+0x214>
    83004ed8:	00d63423          	sd	a3,8(a2)
    83004edc:	0015f593          	andi	a1,a1,1
    83004ee0:	00d60833          	add	a6,a2,a3
    83004ee4:	0a059663          	bnez	a1,83004f90 <_free_r+0x104>
    83004ee8:	ff043303          	ld	t1,-16(s0)
    83004eec:	00883583          	ld	a1,8(a6)
    83004ef0:	00005897          	auipc	a7,0x5
    83004ef4:	ee088893          	addi	a7,a7,-288 # 83009dd0 <__malloc_av_+0x10>
    83004ef8:	40670733          	sub	a4,a4,t1
    83004efc:	01073803          	ld	a6,16(a4)
    83004f00:	006787b3          	add	a5,a5,t1
    83004f04:	0015f593          	andi	a1,a1,1
    83004f08:	15180a63          	beq	a6,a7,8300505c <_free_r+0x1d0>
    83004f0c:	01873303          	ld	t1,24(a4)
    83004f10:	00683c23          	sd	t1,24(a6)
    83004f14:	01033823          	sd	a6,16(t1)
    83004f18:	20058463          	beqz	a1,83005120 <_free_r+0x294>
    83004f1c:	0017e693          	ori	a3,a5,1
    83004f20:	00d73423          	sd	a3,8(a4)
    83004f24:	00f63023          	sd	a5,0(a2)
    83004f28:	1ff00693          	li	a3,511
    83004f2c:	0af6ee63          	bltu	a3,a5,83004fe8 <_free_r+0x15c>
    83004f30:	0037d793          	srli	a5,a5,0x3
    83004f34:	0017869b          	addiw	a3,a5,1
    83004f38:	0016969b          	slliw	a3,a3,0x1
    83004f3c:	00369693          	slli	a3,a3,0x3
    83004f40:	00853803          	ld	a6,8(a0)
    83004f44:	00d506b3          	add	a3,a0,a3
    83004f48:	0006b583          	ld	a1,0(a3)
    83004f4c:	4027d61b          	sraiw	a2,a5,0x2
    83004f50:	00100793          	li	a5,1
    83004f54:	00c797b3          	sll	a5,a5,a2
    83004f58:	0107e7b3          	or	a5,a5,a6
    83004f5c:	ff068613          	addi	a2,a3,-16
    83004f60:	00c73c23          	sd	a2,24(a4)
    83004f64:	00b73823          	sd	a1,16(a4)
    83004f68:	00f53423          	sd	a5,8(a0)
    83004f6c:	00e6b023          	sd	a4,0(a3)
    83004f70:	00e5bc23          	sd	a4,24(a1)
    83004f74:	01013403          	ld	s0,16(sp)
    83004f78:	01813083          	ld	ra,24(sp)
    83004f7c:	00048513          	mv	a0,s1
    83004f80:	00813483          	ld	s1,8(sp)
    83004f84:	02010113          	addi	sp,sp,32
    83004f88:	00000317          	auipc	t1,0x0
    83004f8c:	da830067          	jr	-600(t1) # 83004d30 <__malloc_unlock>
    83004f90:	00883583          	ld	a1,8(a6)
    83004f94:	0015f593          	andi	a1,a1,1
    83004f98:	02059e63          	bnez	a1,83004fd4 <_free_r+0x148>
    83004f9c:	00d787b3          	add	a5,a5,a3
    83004fa0:	00005897          	auipc	a7,0x5
    83004fa4:	e3088893          	addi	a7,a7,-464 # 83009dd0 <__malloc_av_+0x10>
    83004fa8:	01063683          	ld	a3,16(a2)
    83004fac:	0017e813          	ori	a6,a5,1
    83004fb0:	00f705b3          	add	a1,a4,a5
    83004fb4:	19168463          	beq	a3,a7,8300513c <_free_r+0x2b0>
    83004fb8:	01863603          	ld	a2,24(a2)
    83004fbc:	00c6bc23          	sd	a2,24(a3)
    83004fc0:	00d63823          	sd	a3,16(a2)
    83004fc4:	01073423          	sd	a6,8(a4)
    83004fc8:	00f5b023          	sd	a5,0(a1)
    83004fcc:	f5dff06f          	j	83004f28 <_free_r+0x9c>
    83004fd0:	00008067          	ret
    83004fd4:	0017e693          	ori	a3,a5,1
    83004fd8:	fed43c23          	sd	a3,-8(s0)
    83004fdc:	00f63023          	sd	a5,0(a2)
    83004fe0:	1ff00693          	li	a3,511
    83004fe4:	f4f6f6e3          	bgeu	a3,a5,83004f30 <_free_r+0xa4>
    83004fe8:	0097d693          	srli	a3,a5,0x9
    83004fec:	00400613          	li	a2,4
    83004ff0:	10d66463          	bltu	a2,a3,830050f8 <_free_r+0x26c>
    83004ff4:	0067d693          	srli	a3,a5,0x6
    83004ff8:	0396859b          	addiw	a1,a3,57
    83004ffc:	0015959b          	slliw	a1,a1,0x1
    83005000:	0386861b          	addiw	a2,a3,56
    83005004:	00359593          	slli	a1,a1,0x3
    83005008:	00b505b3          	add	a1,a0,a1
    8300500c:	0005b683          	ld	a3,0(a1)
    83005010:	ff058593          	addi	a1,a1,-16
    83005014:	14d58263          	beq	a1,a3,83005158 <_free_r+0x2cc>
    83005018:	0086b603          	ld	a2,8(a3)
    8300501c:	ffc67613          	andi	a2,a2,-4
    83005020:	00c7f663          	bgeu	a5,a2,8300502c <_free_r+0x1a0>
    83005024:	0106b683          	ld	a3,16(a3)
    83005028:	fed598e3          	bne	a1,a3,83005018 <_free_r+0x18c>
    8300502c:	0186b583          	ld	a1,24(a3)
    83005030:	00b73c23          	sd	a1,24(a4)
    83005034:	00d73823          	sd	a3,16(a4)
    83005038:	01013403          	ld	s0,16(sp)
    8300503c:	01813083          	ld	ra,24(sp)
    83005040:	00e5b823          	sd	a4,16(a1)
    83005044:	00048513          	mv	a0,s1
    83005048:	00813483          	ld	s1,8(sp)
    8300504c:	00e6bc23          	sd	a4,24(a3)
    83005050:	02010113          	addi	sp,sp,32
    83005054:	00000317          	auipc	t1,0x0
    83005058:	cdc30067          	jr	-804(t1) # 83004d30 <__malloc_unlock>
    8300505c:	16059263          	bnez	a1,830051c0 <_free_r+0x334>
    83005060:	01863583          	ld	a1,24(a2)
    83005064:	01063603          	ld	a2,16(a2)
    83005068:	00f686b3          	add	a3,a3,a5
    8300506c:	01013403          	ld	s0,16(sp)
    83005070:	00b63c23          	sd	a1,24(a2)
    83005074:	00c5b823          	sd	a2,16(a1)
    83005078:	0016e793          	ori	a5,a3,1
    8300507c:	01813083          	ld	ra,24(sp)
    83005080:	00f73423          	sd	a5,8(a4)
    83005084:	00048513          	mv	a0,s1
    83005088:	00d70733          	add	a4,a4,a3
    8300508c:	00813483          	ld	s1,8(sp)
    83005090:	00d73023          	sd	a3,0(a4)
    83005094:	02010113          	addi	sp,sp,32
    83005098:	00000317          	auipc	t1,0x0
    8300509c:	c9830067          	jr	-872(t1) # 83004d30 <__malloc_unlock>
    830050a0:	0015f593          	andi	a1,a1,1
    830050a4:	00d786b3          	add	a3,a5,a3
    830050a8:	02059063          	bnez	a1,830050c8 <_free_r+0x23c>
    830050ac:	ff043583          	ld	a1,-16(s0)
    830050b0:	40b70733          	sub	a4,a4,a1
    830050b4:	01873783          	ld	a5,24(a4)
    830050b8:	01073603          	ld	a2,16(a4)
    830050bc:	00b686b3          	add	a3,a3,a1
    830050c0:	00f63c23          	sd	a5,24(a2)
    830050c4:	00c7b823          	sd	a2,16(a5)
    830050c8:	0016e793          	ori	a5,a3,1
    830050cc:	00f73423          	sd	a5,8(a4)
    830050d0:	00e53823          	sd	a4,16(a0)
    830050d4:	00005797          	auipc	a5,0x5
    830050d8:	57c7b783          	ld	a5,1404(a5) # 8300a650 <__malloc_trim_threshold>
    830050dc:	e8f6ece3          	bltu	a3,a5,83004f74 <_free_r+0xe8>
    830050e0:	00005597          	auipc	a1,0x5
    830050e4:	5985b583          	ld	a1,1432(a1) # 8300a678 <__malloc_top_pad>
    830050e8:	00048513          	mv	a0,s1
    830050ec:	00000097          	auipc	ra,0x0
    830050f0:	c48080e7          	jalr	-952(ra) # 83004d34 <_malloc_trim_r>
    830050f4:	e81ff06f          	j	83004f74 <_free_r+0xe8>
    830050f8:	01400613          	li	a2,20
    830050fc:	02d67663          	bgeu	a2,a3,83005128 <_free_r+0x29c>
    83005100:	05400613          	li	a2,84
    83005104:	06d66863          	bltu	a2,a3,83005174 <_free_r+0x2e8>
    83005108:	00c7d693          	srli	a3,a5,0xc
    8300510c:	06f6859b          	addiw	a1,a3,111
    83005110:	0015959b          	slliw	a1,a1,0x1
    83005114:	06e6861b          	addiw	a2,a3,110
    83005118:	00359593          	slli	a1,a1,0x3
    8300511c:	eedff06f          	j	83005008 <_free_r+0x17c>
    83005120:	00d787b3          	add	a5,a5,a3
    83005124:	e85ff06f          	j	83004fa8 <_free_r+0x11c>
    83005128:	05c6859b          	addiw	a1,a3,92
    8300512c:	0015959b          	slliw	a1,a1,0x1
    83005130:	05b6861b          	addiw	a2,a3,91
    83005134:	00359593          	slli	a1,a1,0x3
    83005138:	ed1ff06f          	j	83005008 <_free_r+0x17c>
    8300513c:	02e53423          	sd	a4,40(a0)
    83005140:	02e53023          	sd	a4,32(a0)
    83005144:	01173c23          	sd	a7,24(a4)
    83005148:	01173823          	sd	a7,16(a4)
    8300514c:	01073423          	sd	a6,8(a4)
    83005150:	00f5b023          	sd	a5,0(a1)
    83005154:	e21ff06f          	j	83004f74 <_free_r+0xe8>
    83005158:	00853803          	ld	a6,8(a0)
    8300515c:	4026561b          	sraiw	a2,a2,0x2
    83005160:	00100793          	li	a5,1
    83005164:	00c797b3          	sll	a5,a5,a2
    83005168:	0107e7b3          	or	a5,a5,a6
    8300516c:	00f53423          	sd	a5,8(a0)
    83005170:	ec1ff06f          	j	83005030 <_free_r+0x1a4>
    83005174:	15400613          	li	a2,340
    83005178:	00d66e63          	bltu	a2,a3,83005194 <_free_r+0x308>
    8300517c:	00f7d693          	srli	a3,a5,0xf
    83005180:	0786859b          	addiw	a1,a3,120
    83005184:	0015959b          	slliw	a1,a1,0x1
    83005188:	0776861b          	addiw	a2,a3,119
    8300518c:	00359593          	slli	a1,a1,0x3
    83005190:	e79ff06f          	j	83005008 <_free_r+0x17c>
    83005194:	55400613          	li	a2,1364
    83005198:	00d66e63          	bltu	a2,a3,830051b4 <_free_r+0x328>
    8300519c:	0127d693          	srli	a3,a5,0x12
    830051a0:	07d6859b          	addiw	a1,a3,125
    830051a4:	0015959b          	slliw	a1,a1,0x1
    830051a8:	07c6861b          	addiw	a2,a3,124
    830051ac:	00359593          	slli	a1,a1,0x3
    830051b0:	e59ff06f          	j	83005008 <_free_r+0x17c>
    830051b4:	7f000593          	li	a1,2032
    830051b8:	07e00613          	li	a2,126
    830051bc:	e4dff06f          	j	83005008 <_free_r+0x17c>
    830051c0:	0017e693          	ori	a3,a5,1
    830051c4:	00d73423          	sd	a3,8(a4)
    830051c8:	00f63023          	sd	a5,0(a2)
    830051cc:	da9ff06f          	j	83004f74 <_free_r+0xe8>

00000000830051d0 <__strtok_r>:
    830051d0:	06050863          	beqz	a0,83005240 <__strtok_r+0x70>
    830051d4:	00054803          	lbu	a6,0(a0)
    830051d8:	00150893          	addi	a7,a0,1
    830051dc:	00058793          	mv	a5,a1
    830051e0:	0080006f          	j	830051e8 <__strtok_r+0x18>
    830051e4:	04e80263          	beq	a6,a4,83005228 <__strtok_r+0x58>
    830051e8:	0007c703          	lbu	a4,0(a5)
    830051ec:	00178793          	addi	a5,a5,1
    830051f0:	fe071ae3          	bnez	a4,830051e4 <__strtok_r+0x14>
    830051f4:	04080e63          	beqz	a6,83005250 <__strtok_r+0x80>
    830051f8:	0008c683          	lbu	a3,0(a7)
    830051fc:	00058793          	mv	a5,a1
    83005200:	00188893          	addi	a7,a7,1
    83005204:	0080006f          	j	8300520c <__strtok_r+0x3c>
    83005208:	fe0708e3          	beqz	a4,830051f8 <__strtok_r+0x28>
    8300520c:	0007c703          	lbu	a4,0(a5)
    83005210:	00178793          	addi	a5,a5,1
    83005214:	fee69ae3          	bne	a3,a4,83005208 <__strtok_r+0x38>
    83005218:	00068e63          	beqz	a3,83005234 <__strtok_r+0x64>
    8300521c:	fe088fa3          	sb	zero,-1(a7)
    83005220:	01163023          	sd	a7,0(a2)
    83005224:	00008067          	ret
    83005228:	02068a63          	beqz	a3,8300525c <__strtok_r+0x8c>
    8300522c:	00088513          	mv	a0,a7
    83005230:	fa5ff06f          	j	830051d4 <__strtok_r+0x4>
    83005234:	00000893          	li	a7,0
    83005238:	01163023          	sd	a7,0(a2)
    8300523c:	00008067          	ret
    83005240:	00063503          	ld	a0,0(a2)
    83005244:	f80518e3          	bnez	a0,830051d4 <__strtok_r+0x4>
    83005248:	00000513          	li	a0,0
    8300524c:	00008067          	ret
    83005250:	00063023          	sd	zero,0(a2)
    83005254:	00000513          	li	a0,0
    83005258:	00008067          	ret
    8300525c:	01163023          	sd	a7,0(a2)
    83005260:	00050023          	sb	zero,0(a0)
    83005264:	00008067          	ret

0000000083005268 <strtok_r>:
    83005268:	00100693          	li	a3,1
    8300526c:	00000317          	auipc	t1,0x0
    83005270:	f6430067          	jr	-156(t1) # 830051d0 <__strtok_r>

0000000083005274 <memset>:
    83005274:	00757793          	andi	a5,a0,7
    83005278:	0c078c63          	beqz	a5,83005350 <memset+0xdc>
    8300527c:	fff60713          	addi	a4,a2,-1
    83005280:	0ff5f813          	zext.b	a6,a1
    83005284:	00050793          	mv	a5,a0
    83005288:	fff00893          	li	a7,-1
    8300528c:	00061863          	bnez	a2,8300529c <memset+0x28>
    83005290:	0cc0006f          	j	8300535c <memset+0xe8>
    83005294:	fff70713          	addi	a4,a4,-1
    83005298:	0b170863          	beq	a4,a7,83005348 <memset+0xd4>
    8300529c:	00178793          	addi	a5,a5,1
    830052a0:	0077f693          	andi	a3,a5,7
    830052a4:	ff078fa3          	sb	a6,-1(a5)
    830052a8:	fe0696e3          	bnez	a3,83005294 <memset+0x20>
    830052ac:	00700693          	li	a3,7
    830052b0:	08e6f063          	bgeu	a3,a4,83005330 <memset+0xbc>
    830052b4:	0ff5f613          	zext.b	a2,a1
    830052b8:	00861693          	slli	a3,a2,0x8
    830052bc:	00c6e6b3          	or	a3,a3,a2
    830052c0:	01069613          	slli	a2,a3,0x10
    830052c4:	00d66633          	or	a2,a2,a3
    830052c8:	02061693          	slli	a3,a2,0x20
    830052cc:	01f00813          	li	a6,31
    830052d0:	00c6e6b3          	or	a3,a3,a2
    830052d4:	08e87663          	bgeu	a6,a4,83005360 <memset+0xec>
    830052d8:	fe070613          	addi	a2,a4,-32
    830052dc:	fe067613          	andi	a2,a2,-32
    830052e0:	02060613          	addi	a2,a2,32
    830052e4:	00c78633          	add	a2,a5,a2
    830052e8:	00d7b023          	sd	a3,0(a5)
    830052ec:	00d7b423          	sd	a3,8(a5)
    830052f0:	00d7b823          	sd	a3,16(a5)
    830052f4:	00d7bc23          	sd	a3,24(a5)
    830052f8:	02078793          	addi	a5,a5,32
    830052fc:	fef616e3          	bne	a2,a5,830052e8 <memset+0x74>
    83005300:	01f77613          	andi	a2,a4,31
    83005304:	01877813          	andi	a6,a4,24
    83005308:	00060713          	mv	a4,a2
    8300530c:	02080263          	beqz	a6,83005330 <memset+0xbc>
    83005310:	ff860713          	addi	a4,a2,-8
    83005314:	ff877713          	andi	a4,a4,-8
    83005318:	00870713          	addi	a4,a4,8
    8300531c:	00e78733          	add	a4,a5,a4
    83005320:	00878793          	addi	a5,a5,8
    83005324:	fed7bc23          	sd	a3,-8(a5)
    83005328:	fef71ce3          	bne	a4,a5,83005320 <memset+0xac>
    8300532c:	00767713          	andi	a4,a2,7
    83005330:	0ff5f593          	zext.b	a1,a1
    83005334:	00e786b3          	add	a3,a5,a4
    83005338:	00070a63          	beqz	a4,8300534c <memset+0xd8>
    8300533c:	00178793          	addi	a5,a5,1
    83005340:	feb78fa3          	sb	a1,-1(a5)
    83005344:	fef69ce3          	bne	a3,a5,8300533c <memset+0xc8>
    83005348:	00008067          	ret
    8300534c:	00008067          	ret
    83005350:	00050793          	mv	a5,a0
    83005354:	00060713          	mv	a4,a2
    83005358:	f55ff06f          	j	830052ac <memset+0x38>
    8300535c:	00008067          	ret
    83005360:	00070613          	mv	a2,a4
    83005364:	fadff06f          	j	83005310 <memset+0x9c>

0000000083005368 <memchr>:
    83005368:	00757793          	andi	a5,a0,7
    8300536c:	0ff5f693          	zext.b	a3,a1
    83005370:	02078a63          	beqz	a5,830053a4 <memchr+0x3c>
    83005374:	fff60793          	addi	a5,a2,-1
    83005378:	02060e63          	beqz	a2,830053b4 <memchr+0x4c>
    8300537c:	fff00613          	li	a2,-1
    83005380:	0180006f          	j	83005398 <memchr+0x30>
    83005384:	00150513          	addi	a0,a0,1
    83005388:	00757713          	andi	a4,a0,7
    8300538c:	00070e63          	beqz	a4,830053a8 <memchr+0x40>
    83005390:	fff78793          	addi	a5,a5,-1
    83005394:	02c78063          	beq	a5,a2,830053b4 <memchr+0x4c>
    83005398:	00054703          	lbu	a4,0(a0)
    8300539c:	fed714e3          	bne	a4,a3,83005384 <memchr+0x1c>
    830053a0:	00008067          	ret
    830053a4:	00060793          	mv	a5,a2
    830053a8:	00700713          	li	a4,7
    830053ac:	02f76663          	bltu	a4,a5,830053d8 <memchr+0x70>
    830053b0:	00079663          	bnez	a5,830053bc <memchr+0x54>
    830053b4:	00000513          	li	a0,0
    830053b8:	00008067          	ret
    830053bc:	00f507b3          	add	a5,a0,a5
    830053c0:	00c0006f          	j	830053cc <memchr+0x64>
    830053c4:	00150513          	addi	a0,a0,1
    830053c8:	fea786e3          	beq	a5,a0,830053b4 <memchr+0x4c>
    830053cc:	00054703          	lbu	a4,0(a0)
    830053d0:	fed71ae3          	bne	a4,a3,830053c4 <memchr+0x5c>
    830053d4:	00008067          	ret
    830053d8:	0ff5f593          	zext.b	a1,a1
    830053dc:	00859613          	slli	a2,a1,0x8
    830053e0:	00b66633          	or	a2,a2,a1
    830053e4:	01061713          	slli	a4,a2,0x10
    830053e8:	00c76733          	or	a4,a4,a2
    830053ec:	02071593          	slli	a1,a4,0x20
    830053f0:	00e5e5b3          	or	a1,a1,a4
    830053f4:	00005897          	auipc	a7,0x5
    830053f8:	1dc8b883          	ld	a7,476(a7) # 8300a5d0 <__SDATA_BEGIN__>
    830053fc:	00005817          	auipc	a6,0x5
    83005400:	1dc83803          	ld	a6,476(a6) # 8300a5d8 <__SDATA_BEGIN__+0x8>
    83005404:	00700313          	li	t1,7
    83005408:	00053703          	ld	a4,0(a0)
    8300540c:	00e5c733          	xor	a4,a1,a4
    83005410:	01170633          	add	a2,a4,a7
    83005414:	fff74713          	not	a4,a4
    83005418:	00e67733          	and	a4,a2,a4
    8300541c:	01077733          	and	a4,a4,a6
    83005420:	f8071ee3          	bnez	a4,830053bc <memchr+0x54>
    83005424:	ff878793          	addi	a5,a5,-8
    83005428:	00850513          	addi	a0,a0,8
    8300542c:	fcf36ee3          	bltu	t1,a5,83005408 <memchr+0xa0>
    83005430:	f80796e3          	bnez	a5,830053bc <memchr+0x54>
    83005434:	f81ff06f          	j	830053b4 <memchr+0x4c>

0000000083005438 <__sfvwrite_r>:
    83005438:	01063783          	ld	a5,16(a2)
    8300543c:	2a078263          	beqz	a5,830056e0 <__sfvwrite_r+0x2a8>
    83005440:	0105d683          	lhu	a3,16(a1)
    83005444:	fa010113          	addi	sp,sp,-96
    83005448:	04813823          	sd	s0,80(sp)
    8300544c:	03413823          	sd	s4,48(sp)
    83005450:	03513423          	sd	s5,40(sp)
    83005454:	04113c23          	sd	ra,88(sp)
    83005458:	04913423          	sd	s1,72(sp)
    8300545c:	05213023          	sd	s2,64(sp)
    83005460:	03313c23          	sd	s3,56(sp)
    83005464:	03613023          	sd	s6,32(sp)
    83005468:	01713c23          	sd	s7,24(sp)
    8300546c:	01813823          	sd	s8,16(sp)
    83005470:	01913423          	sd	s9,8(sp)
    83005474:	01a13023          	sd	s10,0(sp)
    83005478:	0086f793          	andi	a5,a3,8
    8300547c:	00060a13          	mv	s4,a2
    83005480:	00050a93          	mv	s5,a0
    83005484:	00058413          	mv	s0,a1
    83005488:	08078863          	beqz	a5,83005518 <__sfvwrite_r+0xe0>
    8300548c:	0185b783          	ld	a5,24(a1)
    83005490:	08078463          	beqz	a5,83005518 <__sfvwrite_r+0xe0>
    83005494:	0026f793          	andi	a5,a3,2
    83005498:	000a3903          	ld	s2,0(s4)
    8300549c:	0a078063          	beqz	a5,8300553c <__sfvwrite_r+0x104>
    830054a0:	04043783          	ld	a5,64(s0)
    830054a4:	03043583          	ld	a1,48(s0)
    830054a8:	80000b37          	lui	s6,0x80000
    830054ac:	00000993          	li	s3,0
    830054b0:	00000493          	li	s1,0
    830054b4:	c00b4b13          	xori	s6,s6,-1024
    830054b8:	00098613          	mv	a2,s3
    830054bc:	000a8513          	mv	a0,s5
    830054c0:	04048463          	beqz	s1,83005508 <__sfvwrite_r+0xd0>
    830054c4:	00048693          	mv	a3,s1
    830054c8:	009b7463          	bgeu	s6,s1,830054d0 <__sfvwrite_r+0x98>
    830054cc:	000b0693          	mv	a3,s6
    830054d0:	0006869b          	sext.w	a3,a3
    830054d4:	000780e7          	jalr	a5
    830054d8:	1ea05a63          	blez	a0,830056cc <__sfvwrite_r+0x294>
    830054dc:	010a3783          	ld	a5,16(s4)
    830054e0:	00a989b3          	add	s3,s3,a0
    830054e4:	40a484b3          	sub	s1,s1,a0
    830054e8:	40a787b3          	sub	a5,a5,a0
    830054ec:	00fa3823          	sd	a5,16(s4)
    830054f0:	18078663          	beqz	a5,8300567c <__sfvwrite_r+0x244>
    830054f4:	04043783          	ld	a5,64(s0)
    830054f8:	03043583          	ld	a1,48(s0)
    830054fc:	00098613          	mv	a2,s3
    83005500:	000a8513          	mv	a0,s5
    83005504:	fc0490e3          	bnez	s1,830054c4 <__sfvwrite_r+0x8c>
    83005508:	00093983          	ld	s3,0(s2)
    8300550c:	00893483          	ld	s1,8(s2)
    83005510:	01090913          	addi	s2,s2,16
    83005514:	fa5ff06f          	j	830054b8 <__sfvwrite_r+0x80>
    83005518:	00040593          	mv	a1,s0
    8300551c:	000a8513          	mv	a0,s5
    83005520:	fffff097          	auipc	ra,0xfffff
    83005524:	d20080e7          	jalr	-736(ra) # 83004240 <__swsetup_r>
    83005528:	40051a63          	bnez	a0,8300593c <__sfvwrite_r+0x504>
    8300552c:	01045683          	lhu	a3,16(s0)
    83005530:	000a3903          	ld	s2,0(s4)
    83005534:	0026f793          	andi	a5,a3,2
    83005538:	f60794e3          	bnez	a5,830054a0 <__sfvwrite_r+0x68>
    8300553c:	0016f793          	andi	a5,a3,1
    83005540:	0a079863          	bnez	a5,830055f0 <__sfvwrite_r+0x1b8>
    83005544:	00c42483          	lw	s1,12(s0)
    83005548:	00043783          	ld	a5,0(s0)
    8300554c:	80000b37          	lui	s6,0x80000
    83005550:	ffeb4b93          	xori	s7,s6,-2
    83005554:	00000c13          	li	s8,0
    83005558:	00000993          	li	s3,0
    8300555c:	fffb4b13          	not	s6,s6
    83005560:	00078513          	mv	a0,a5
    83005564:	00048c93          	mv	s9,s1
    83005568:	06098c63          	beqz	s3,830055e0 <__sfvwrite_r+0x1a8>
    8300556c:	2006f713          	andi	a4,a3,512
    83005570:	1e070663          	beqz	a4,8300575c <__sfvwrite_r+0x324>
    83005574:	00048d13          	mv	s10,s1
    83005578:	2899fe63          	bgeu	s3,s1,83005814 <__sfvwrite_r+0x3dc>
    8300557c:	00098c93          	mv	s9,s3
    83005580:	00098d13          	mv	s10,s3
    83005584:	000d0613          	mv	a2,s10
    83005588:	000c0593          	mv	a1,s8
    8300558c:	00002097          	auipc	ra,0x2
    83005590:	9f4080e7          	jalr	-1548(ra) # 83006f80 <memmove>
    83005594:	00c42703          	lw	a4,12(s0)
    83005598:	00043783          	ld	a5,0(s0)
    8300559c:	00098493          	mv	s1,s3
    830055a0:	4197073b          	subw	a4,a4,s9
    830055a4:	01a78d33          	add	s10,a5,s10
    830055a8:	00e42623          	sw	a4,12(s0)
    830055ac:	01a43023          	sd	s10,0(s0)
    830055b0:	00000993          	li	s3,0
    830055b4:	010a3783          	ld	a5,16(s4)
    830055b8:	009c0c33          	add	s8,s8,s1
    830055bc:	409787b3          	sub	a5,a5,s1
    830055c0:	00fa3823          	sd	a5,16(s4)
    830055c4:	0a078c63          	beqz	a5,8300567c <__sfvwrite_r+0x244>
    830055c8:	00c42483          	lw	s1,12(s0)
    830055cc:	00043783          	ld	a5,0(s0)
    830055d0:	01045683          	lhu	a3,16(s0)
    830055d4:	00048c93          	mv	s9,s1
    830055d8:	00078513          	mv	a0,a5
    830055dc:	f80998e3          	bnez	s3,8300556c <__sfvwrite_r+0x134>
    830055e0:	00093c03          	ld	s8,0(s2)
    830055e4:	00893983          	ld	s3,8(s2)
    830055e8:	01090913          	addi	s2,s2,16
    830055ec:	f75ff06f          	j	83005560 <__sfvwrite_r+0x128>
    830055f0:	00000b93          	li	s7,0
    830055f4:	00000513          	li	a0,0
    830055f8:	00000c93          	li	s9,0
    830055fc:	00000c13          	li	s8,0
    83005600:	0e0c0463          	beqz	s8,830056e8 <__sfvwrite_r+0x2b0>
    83005604:	0e050c63          	beqz	a0,830056fc <__sfvwrite_r+0x2c4>
    83005608:	000b8b13          	mv	s6,s7
    8300560c:	017c7463          	bgeu	s8,s7,83005614 <__sfvwrite_r+0x1dc>
    83005610:	000c0b13          	mv	s6,s8
    83005614:	00043503          	ld	a0,0(s0)
    83005618:	01843703          	ld	a4,24(s0)
    8300561c:	00c42783          	lw	a5,12(s0)
    83005620:	02042683          	lw	a3,32(s0)
    83005624:	000b0493          	mv	s1,s6
    83005628:	00a77663          	bgeu	a4,a0,83005634 <__sfvwrite_r+0x1fc>
    8300562c:	00d789bb          	addw	s3,a5,a3
    83005630:	0f69c863          	blt	s3,s6,83005720 <__sfvwrite_r+0x2e8>
    83005634:	28db4263          	blt	s6,a3,830058b8 <__sfvwrite_r+0x480>
    83005638:	04043783          	ld	a5,64(s0)
    8300563c:	03043583          	ld	a1,48(s0)
    83005640:	000c8613          	mv	a2,s9
    83005644:	000a8513          	mv	a0,s5
    83005648:	000780e7          	jalr	a5
    8300564c:	00050493          	mv	s1,a0
    83005650:	06a05e63          	blez	a0,830056cc <__sfvwrite_r+0x294>
    83005654:	0005079b          	sext.w	a5,a0
    83005658:	40fb8bbb          	subw	s7,s7,a5
    8300565c:	00100513          	li	a0,1
    83005660:	040b8c63          	beqz	s7,830056b8 <__sfvwrite_r+0x280>
    83005664:	010a3783          	ld	a5,16(s4)
    83005668:	009c8cb3          	add	s9,s9,s1
    8300566c:	409c0c33          	sub	s8,s8,s1
    83005670:	409787b3          	sub	a5,a5,s1
    83005674:	00fa3823          	sd	a5,16(s4)
    83005678:	f80794e3          	bnez	a5,83005600 <__sfvwrite_r+0x1c8>
    8300567c:	00000513          	li	a0,0
    83005680:	05813083          	ld	ra,88(sp)
    83005684:	05013403          	ld	s0,80(sp)
    83005688:	04813483          	ld	s1,72(sp)
    8300568c:	04013903          	ld	s2,64(sp)
    83005690:	03813983          	ld	s3,56(sp)
    83005694:	03013a03          	ld	s4,48(sp)
    83005698:	02813a83          	ld	s5,40(sp)
    8300569c:	02013b03          	ld	s6,32(sp)
    830056a0:	01813b83          	ld	s7,24(sp)
    830056a4:	01013c03          	ld	s8,16(sp)
    830056a8:	00813c83          	ld	s9,8(sp)
    830056ac:	00013d03          	ld	s10,0(sp)
    830056b0:	06010113          	addi	sp,sp,96
    830056b4:	00008067          	ret
    830056b8:	00040593          	mv	a1,s0
    830056bc:	000a8513          	mv	a0,s5
    830056c0:	00000097          	auipc	ra,0x0
    830056c4:	4b0080e7          	jalr	1200(ra) # 83005b70 <_fflush_r>
    830056c8:	f8050ee3          	beqz	a0,83005664 <__sfvwrite_r+0x22c>
    830056cc:	01041783          	lh	a5,16(s0)
    830056d0:	0407e793          	ori	a5,a5,64
    830056d4:	00f41823          	sh	a5,16(s0)
    830056d8:	fff00513          	li	a0,-1
    830056dc:	fa5ff06f          	j	83005680 <__sfvwrite_r+0x248>
    830056e0:	00000513          	li	a0,0
    830056e4:	00008067          	ret
    830056e8:	00893c03          	ld	s8,8(s2)
    830056ec:	00090793          	mv	a5,s2
    830056f0:	01090913          	addi	s2,s2,16
    830056f4:	fe0c0ae3          	beqz	s8,830056e8 <__sfvwrite_r+0x2b0>
    830056f8:	0007bc83          	ld	s9,0(a5)
    830056fc:	000c0613          	mv	a2,s8
    83005700:	00a00593          	li	a1,10
    83005704:	000c8513          	mv	a0,s9
    83005708:	00000097          	auipc	ra,0x0
    8300570c:	c60080e7          	jalr	-928(ra) # 83005368 <memchr>
    83005710:	20050a63          	beqz	a0,83005924 <__sfvwrite_r+0x4ec>
    83005714:	00150513          	addi	a0,a0,1
    83005718:	41950bbb          	subw	s7,a0,s9
    8300571c:	eedff06f          	j	83005608 <__sfvwrite_r+0x1d0>
    83005720:	000c8593          	mv	a1,s9
    83005724:	00098613          	mv	a2,s3
    83005728:	00002097          	auipc	ra,0x2
    8300572c:	858080e7          	jalr	-1960(ra) # 83006f80 <memmove>
    83005730:	00043783          	ld	a5,0(s0)
    83005734:	00040593          	mv	a1,s0
    83005738:	000a8513          	mv	a0,s5
    8300573c:	013787b3          	add	a5,a5,s3
    83005740:	00f43023          	sd	a5,0(s0)
    83005744:	00000097          	auipc	ra,0x0
    83005748:	42c080e7          	jalr	1068(ra) # 83005b70 <_fflush_r>
    8300574c:	f80510e3          	bnez	a0,830056cc <__sfvwrite_r+0x294>
    83005750:	00098793          	mv	a5,s3
    83005754:	00098493          	mv	s1,s3
    83005758:	f01ff06f          	j	83005658 <__sfvwrite_r+0x220>
    8300575c:	01843703          	ld	a4,24(s0)
    83005760:	06f76063          	bltu	a4,a5,830057c0 <__sfvwrite_r+0x388>
    83005764:	02042c83          	lw	s9,32(s0)
    83005768:	0599ec63          	bltu	s3,s9,830057c0 <__sfvwrite_r+0x388>
    8300576c:	00098513          	mv	a0,s3
    83005770:	013bf463          	bgeu	s7,s3,83005778 <__sfvwrite_r+0x340>
    83005774:	000b0513          	mv	a0,s6
    83005778:	000c8593          	mv	a1,s9
    8300577c:	0005051b          	sext.w	a0,a0
    83005780:	00002097          	auipc	ra,0x2
    83005784:	d18080e7          	jalr	-744(ra) # 83007498 <__divdi3>
    83005788:	00050593          	mv	a1,a0
    8300578c:	000c8513          	mv	a0,s9
    83005790:	00002097          	auipc	ra,0x2
    83005794:	dc8080e7          	jalr	-568(ra) # 83007558 <__muldi3>
    83005798:	04043783          	ld	a5,64(s0)
    8300579c:	03043583          	ld	a1,48(s0)
    830057a0:	0005069b          	sext.w	a3,a0
    830057a4:	000c0613          	mv	a2,s8
    830057a8:	000a8513          	mv	a0,s5
    830057ac:	000780e7          	jalr	a5
    830057b0:	00050493          	mv	s1,a0
    830057b4:	f0a05ce3          	blez	a0,830056cc <__sfvwrite_r+0x294>
    830057b8:	409989b3          	sub	s3,s3,s1
    830057bc:	df9ff06f          	j	830055b4 <__sfvwrite_r+0x17c>
    830057c0:	0099f463          	bgeu	s3,s1,830057c8 <__sfvwrite_r+0x390>
    830057c4:	00098493          	mv	s1,s3
    830057c8:	00078513          	mv	a0,a5
    830057cc:	00048613          	mv	a2,s1
    830057d0:	000c0593          	mv	a1,s8
    830057d4:	00001097          	auipc	ra,0x1
    830057d8:	7ac080e7          	jalr	1964(ra) # 83006f80 <memmove>
    830057dc:	00c42703          	lw	a4,12(s0)
    830057e0:	00043783          	ld	a5,0(s0)
    830057e4:	409706bb          	subw	a3,a4,s1
    830057e8:	009787b3          	add	a5,a5,s1
    830057ec:	00d42623          	sw	a3,12(s0)
    830057f0:	00f43023          	sd	a5,0(s0)
    830057f4:	fc0692e3          	bnez	a3,830057b8 <__sfvwrite_r+0x380>
    830057f8:	00040593          	mv	a1,s0
    830057fc:	000a8513          	mv	a0,s5
    83005800:	00000097          	auipc	ra,0x0
    83005804:	370080e7          	jalr	880(ra) # 83005b70 <_fflush_r>
    83005808:	ec0512e3          	bnez	a0,830056cc <__sfvwrite_r+0x294>
    8300580c:	409989b3          	sub	s3,s3,s1
    83005810:	da5ff06f          	j	830055b4 <__sfvwrite_r+0x17c>
    83005814:	4806f713          	andi	a4,a3,1152
    83005818:	d60706e3          	beqz	a4,83005584 <__sfvwrite_r+0x14c>
    8300581c:	02042603          	lw	a2,32(s0)
    83005820:	01843583          	ld	a1,24(s0)
    83005824:	0016171b          	slliw	a4,a2,0x1
    83005828:	00c7073b          	addw	a4,a4,a2
    8300582c:	40b787b3          	sub	a5,a5,a1
    83005830:	01f7549b          	srliw	s1,a4,0x1f
    83005834:	00078d1b          	sext.w	s10,a5
    83005838:	00e484bb          	addw	s1,s1,a4
    8300583c:	001d0713          	addi	a4,s10,1
    83005840:	4014d49b          	sraiw	s1,s1,0x1
    83005844:	01370733          	add	a4,a4,s3
    83005848:	00e4f663          	bgeu	s1,a4,83005854 <__sfvwrite_r+0x41c>
    8300584c:	0017871b          	addiw	a4,a5,1
    83005850:	013704bb          	addw	s1,a4,s3
    83005854:	4006f693          	andi	a3,a3,1024
    83005858:	08068863          	beqz	a3,830058e8 <__sfvwrite_r+0x4b0>
    8300585c:	00048593          	mv	a1,s1
    83005860:	000a8513          	mv	a0,s5
    83005864:	fffff097          	auipc	ra,0xfffff
    83005868:	bbc080e7          	jalr	-1092(ra) # 83004420 <_malloc_r>
    8300586c:	00050c93          	mv	s9,a0
    83005870:	0a050e63          	beqz	a0,8300592c <__sfvwrite_r+0x4f4>
    83005874:	01843583          	ld	a1,24(s0)
    83005878:	000d0613          	mv	a2,s10
    8300587c:	ffffd097          	auipc	ra,0xffffd
    83005880:	ab0080e7          	jalr	-1360(ra) # 8300232c <memcpy>
    83005884:	01045783          	lhu	a5,16(s0)
    83005888:	b7f7f793          	andi	a5,a5,-1153
    8300588c:	0807e793          	ori	a5,a5,128
    83005890:	00f41823          	sh	a5,16(s0)
    83005894:	01ac8533          	add	a0,s9,s10
    83005898:	41a487bb          	subw	a5,s1,s10
    8300589c:	01943c23          	sd	s9,24(s0)
    830058a0:	00a43023          	sd	a0,0(s0)
    830058a4:	02942023          	sw	s1,32(s0)
    830058a8:	00098c93          	mv	s9,s3
    830058ac:	00f42623          	sw	a5,12(s0)
    830058b0:	00098d13          	mv	s10,s3
    830058b4:	cd1ff06f          	j	83005584 <__sfvwrite_r+0x14c>
    830058b8:	000b0613          	mv	a2,s6
    830058bc:	000c8593          	mv	a1,s9
    830058c0:	00001097          	auipc	ra,0x1
    830058c4:	6c0080e7          	jalr	1728(ra) # 83006f80 <memmove>
    830058c8:	00c42683          	lw	a3,12(s0)
    830058cc:	00043703          	ld	a4,0(s0)
    830058d0:	000b079b          	sext.w	a5,s6
    830058d4:	416686bb          	subw	a3,a3,s6
    830058d8:	01670733          	add	a4,a4,s6
    830058dc:	00d42623          	sw	a3,12(s0)
    830058e0:	00e43023          	sd	a4,0(s0)
    830058e4:	d75ff06f          	j	83005658 <__sfvwrite_r+0x220>
    830058e8:	00048613          	mv	a2,s1
    830058ec:	000a8513          	mv	a0,s5
    830058f0:	00001097          	auipc	ra,0x1
    830058f4:	094080e7          	jalr	148(ra) # 83006984 <_realloc_r>
    830058f8:	00050c93          	mv	s9,a0
    830058fc:	f8051ce3          	bnez	a0,83005894 <__sfvwrite_r+0x45c>
    83005900:	01843583          	ld	a1,24(s0)
    83005904:	000a8513          	mv	a0,s5
    83005908:	fffff097          	auipc	ra,0xfffff
    8300590c:	584080e7          	jalr	1412(ra) # 83004e8c <_free_r>
    83005910:	01041783          	lh	a5,16(s0)
    83005914:	00c00713          	li	a4,12
    83005918:	00eaa023          	sw	a4,0(s5)
    8300591c:	f7f7f793          	andi	a5,a5,-129
    83005920:	db1ff06f          	j	830056d0 <__sfvwrite_r+0x298>
    83005924:	001c0b9b          	addiw	s7,s8,1
    83005928:	ce1ff06f          	j	83005608 <__sfvwrite_r+0x1d0>
    8300592c:	00c00713          	li	a4,12
    83005930:	01041783          	lh	a5,16(s0)
    83005934:	00eaa023          	sw	a4,0(s5)
    83005938:	d99ff06f          	j	830056d0 <__sfvwrite_r+0x298>
    8300593c:	fff00513          	li	a0,-1
    83005940:	d41ff06f          	j	83005680 <__sfvwrite_r+0x248>

0000000083005944 <__sflush_r>:
    83005944:	0105d783          	lhu	a5,16(a1)
    83005948:	fd010113          	addi	sp,sp,-48
    8300594c:	02813023          	sd	s0,32(sp)
    83005950:	01313423          	sd	s3,8(sp)
    83005954:	02113423          	sd	ra,40(sp)
    83005958:	00913c23          	sd	s1,24(sp)
    8300595c:	01213823          	sd	s2,16(sp)
    83005960:	0087f713          	andi	a4,a5,8
    83005964:	00058413          	mv	s0,a1
    83005968:	00050993          	mv	s3,a0
    8300596c:	0e071a63          	bnez	a4,83005a60 <__sflush_r+0x11c>
    83005970:	0085a703          	lw	a4,8(a1)
    83005974:	16e05863          	blez	a4,83005ae4 <__sflush_r+0x1a0>
    83005978:	04843703          	ld	a4,72(s0)
    8300597c:	0c070263          	beqz	a4,83005a40 <__sflush_r+0xfc>
    83005980:	000016b7          	lui	a3,0x1
    83005984:	0009a483          	lw	s1,0(s3)
    83005988:	00d7f6b3          	and	a3,a5,a3
    8300598c:	0009a023          	sw	zero,0(s3)
    83005990:	03043583          	ld	a1,48(s0)
    83005994:	14069e63          	bnez	a3,83005af0 <__sflush_r+0x1ac>
    83005998:	00000613          	li	a2,0
    8300599c:	00100693          	li	a3,1
    830059a0:	00098513          	mv	a0,s3
    830059a4:	000700e7          	jalr	a4
    830059a8:	fff00793          	li	a5,-1
    830059ac:	00050613          	mv	a2,a0
    830059b0:	16f50663          	beq	a0,a5,83005b1c <__sflush_r+0x1d8>
    830059b4:	01045783          	lhu	a5,16(s0)
    830059b8:	04843703          	ld	a4,72(s0)
    830059bc:	03043583          	ld	a1,48(s0)
    830059c0:	0047f793          	andi	a5,a5,4
    830059c4:	00078e63          	beqz	a5,830059e0 <__sflush_r+0x9c>
    830059c8:	00842683          	lw	a3,8(s0)
    830059cc:	05843783          	ld	a5,88(s0)
    830059d0:	40d60633          	sub	a2,a2,a3
    830059d4:	00078663          	beqz	a5,830059e0 <__sflush_r+0x9c>
    830059d8:	07042783          	lw	a5,112(s0)
    830059dc:	40f60633          	sub	a2,a2,a5
    830059e0:	00000693          	li	a3,0
    830059e4:	00098513          	mv	a0,s3
    830059e8:	000700e7          	jalr	a4
    830059ec:	fff00793          	li	a5,-1
    830059f0:	10f51463          	bne	a0,a5,83005af8 <__sflush_r+0x1b4>
    830059f4:	0009a783          	lw	a5,0(s3)
    830059f8:	01041703          	lh	a4,16(s0)
    830059fc:	14078263          	beqz	a5,83005b40 <__sflush_r+0x1fc>
    83005a00:	01d00693          	li	a3,29
    83005a04:	00d78663          	beq	a5,a3,83005a10 <__sflush_r+0xcc>
    83005a08:	01600693          	li	a3,22
    83005a0c:	14d79a63          	bne	a5,a3,83005b60 <__sflush_r+0x21c>
    83005a10:	01843783          	ld	a5,24(s0)
    83005a14:	00042423          	sw	zero,8(s0)
    83005a18:	00f43023          	sd	a5,0(s0)
    83005a1c:	05843583          	ld	a1,88(s0)
    83005a20:	0099a023          	sw	s1,0(s3)
    83005a24:	00058e63          	beqz	a1,83005a40 <__sflush_r+0xfc>
    83005a28:	07440793          	addi	a5,s0,116
    83005a2c:	00f58863          	beq	a1,a5,83005a3c <__sflush_r+0xf8>
    83005a30:	00098513          	mv	a0,s3
    83005a34:	fffff097          	auipc	ra,0xfffff
    83005a38:	458080e7          	jalr	1112(ra) # 83004e8c <_free_r>
    83005a3c:	04043c23          	sd	zero,88(s0)
    83005a40:	00000513          	li	a0,0
    83005a44:	02813083          	ld	ra,40(sp)
    83005a48:	02013403          	ld	s0,32(sp)
    83005a4c:	01813483          	ld	s1,24(sp)
    83005a50:	01013903          	ld	s2,16(sp)
    83005a54:	00813983          	ld	s3,8(sp)
    83005a58:	03010113          	addi	sp,sp,48
    83005a5c:	00008067          	ret
    83005a60:	0185b903          	ld	s2,24(a1)
    83005a64:	fc090ee3          	beqz	s2,83005a40 <__sflush_r+0xfc>
    83005a68:	0005b483          	ld	s1,0(a1)
    83005a6c:	0037f793          	andi	a5,a5,3
    83005a70:	0125b023          	sd	s2,0(a1)
    83005a74:	412484bb          	subw	s1,s1,s2
    83005a78:	00000713          	li	a4,0
    83005a7c:	00079463          	bnez	a5,83005a84 <__sflush_r+0x140>
    83005a80:	0205a703          	lw	a4,32(a1)
    83005a84:	00e42623          	sw	a4,12(s0)
    83005a88:	00904863          	bgtz	s1,83005a98 <__sflush_r+0x154>
    83005a8c:	fb5ff06f          	j	83005a40 <__sflush_r+0xfc>
    83005a90:	00a90933          	add	s2,s2,a0
    83005a94:	fa9056e3          	blez	s1,83005a40 <__sflush_r+0xfc>
    83005a98:	04043783          	ld	a5,64(s0)
    83005a9c:	03043583          	ld	a1,48(s0)
    83005aa0:	00048693          	mv	a3,s1
    83005aa4:	00090613          	mv	a2,s2
    83005aa8:	00098513          	mv	a0,s3
    83005aac:	000780e7          	jalr	a5
    83005ab0:	40a484bb          	subw	s1,s1,a0
    83005ab4:	fca04ee3          	bgtz	a0,83005a90 <__sflush_r+0x14c>
    83005ab8:	01045783          	lhu	a5,16(s0)
    83005abc:	02813083          	ld	ra,40(sp)
    83005ac0:	01813483          	ld	s1,24(sp)
    83005ac4:	0407e793          	ori	a5,a5,64
    83005ac8:	00f41823          	sh	a5,16(s0)
    83005acc:	02013403          	ld	s0,32(sp)
    83005ad0:	01013903          	ld	s2,16(sp)
    83005ad4:	00813983          	ld	s3,8(sp)
    83005ad8:	fff00513          	li	a0,-1
    83005adc:	03010113          	addi	sp,sp,48
    83005ae0:	00008067          	ret
    83005ae4:	0705a703          	lw	a4,112(a1)
    83005ae8:	e8e048e3          	bgtz	a4,83005978 <__sflush_r+0x34>
    83005aec:	f55ff06f          	j	83005a40 <__sflush_r+0xfc>
    83005af0:	09043603          	ld	a2,144(s0)
    83005af4:	ecdff06f          	j	830059c0 <__sflush_r+0x7c>
    83005af8:	01843703          	ld	a4,24(s0)
    83005afc:	01045783          	lhu	a5,16(s0)
    83005b00:	00042423          	sw	zero,8(s0)
    83005b04:	00e43023          	sd	a4,0(s0)
    83005b08:	00001737          	lui	a4,0x1
    83005b0c:	00e7f7b3          	and	a5,a5,a4
    83005b10:	f00786e3          	beqz	a5,83005a1c <__sflush_r+0xd8>
    83005b14:	08a43823          	sd	a0,144(s0)
    83005b18:	f05ff06f          	j	83005a1c <__sflush_r+0xd8>
    83005b1c:	0009a783          	lw	a5,0(s3)
    83005b20:	e8078ae3          	beqz	a5,830059b4 <__sflush_r+0x70>
    83005b24:	01d00713          	li	a4,29
    83005b28:	00e78663          	beq	a5,a4,83005b34 <__sflush_r+0x1f0>
    83005b2c:	01600713          	li	a4,22
    83005b30:	f8e794e3          	bne	a5,a4,83005ab8 <__sflush_r+0x174>
    83005b34:	0099a023          	sw	s1,0(s3)
    83005b38:	00000513          	li	a0,0
    83005b3c:	f09ff06f          	j	83005a44 <__sflush_r+0x100>
    83005b40:	01843783          	ld	a5,24(s0)
    83005b44:	00042423          	sw	zero,8(s0)
    83005b48:	00f43023          	sd	a5,0(s0)
    83005b4c:	000017b7          	lui	a5,0x1
    83005b50:	00f77733          	and	a4,a4,a5
    83005b54:	ec0704e3          	beqz	a4,83005a1c <__sflush_r+0xd8>
    83005b58:	08a43823          	sd	a0,144(s0)
    83005b5c:	ec1ff06f          	j	83005a1c <__sflush_r+0xd8>
    83005b60:	04076713          	ori	a4,a4,64
    83005b64:	00e41823          	sh	a4,16(s0)
    83005b68:	fff00513          	li	a0,-1
    83005b6c:	ed9ff06f          	j	83005a44 <__sflush_r+0x100>

0000000083005b70 <_fflush_r>:
    83005b70:	fe010113          	addi	sp,sp,-32
    83005b74:	00813823          	sd	s0,16(sp)
    83005b78:	00113c23          	sd	ra,24(sp)
    83005b7c:	00050413          	mv	s0,a0
    83005b80:	00050663          	beqz	a0,83005b8c <_fflush_r+0x1c>
    83005b84:	05052783          	lw	a5,80(a0)
    83005b88:	02078063          	beqz	a5,83005ba8 <_fflush_r+0x38>
    83005b8c:	01059783          	lh	a5,16(a1)
    83005b90:	02079863          	bnez	a5,83005bc0 <_fflush_r+0x50>
    83005b94:	01813083          	ld	ra,24(sp)
    83005b98:	01013403          	ld	s0,16(sp)
    83005b9c:	00000513          	li	a0,0
    83005ba0:	02010113          	addi	sp,sp,32
    83005ba4:	00008067          	ret
    83005ba8:	00b13423          	sd	a1,8(sp)
    83005bac:	ffffe097          	auipc	ra,0xffffe
    83005bb0:	640080e7          	jalr	1600(ra) # 830041ec <__sinit>
    83005bb4:	00813583          	ld	a1,8(sp)
    83005bb8:	01059783          	lh	a5,16(a1)
    83005bbc:	fc078ce3          	beqz	a5,83005b94 <_fflush_r+0x24>
    83005bc0:	00040513          	mv	a0,s0
    83005bc4:	01013403          	ld	s0,16(sp)
    83005bc8:	01813083          	ld	ra,24(sp)
    83005bcc:	02010113          	addi	sp,sp,32
    83005bd0:	00000317          	auipc	t1,0x0
    83005bd4:	d7430067          	jr	-652(t1) # 83005944 <__sflush_r>

0000000083005bd8 <fflush>:
    83005bd8:	06050c63          	beqz	a0,83005c50 <fflush+0x78>
    83005bdc:	fe010113          	addi	sp,sp,-32
    83005be0:	00813823          	sd	s0,16(sp)
    83005be4:	00113c23          	sd	ra,24(sp)
    83005be8:	00050413          	mv	s0,a0
    83005bec:	00005517          	auipc	a0,0x5
    83005bf0:	a5453503          	ld	a0,-1452(a0) # 8300a640 <_impure_ptr>
    83005bf4:	00050663          	beqz	a0,83005c00 <fflush+0x28>
    83005bf8:	05052783          	lw	a5,80(a0)
    83005bfc:	02078c63          	beqz	a5,83005c34 <fflush+0x5c>
    83005c00:	01041783          	lh	a5,16(s0)
    83005c04:	00079c63          	bnez	a5,83005c1c <fflush+0x44>
    83005c08:	01813083          	ld	ra,24(sp)
    83005c0c:	01013403          	ld	s0,16(sp)
    83005c10:	00000513          	li	a0,0
    83005c14:	02010113          	addi	sp,sp,32
    83005c18:	00008067          	ret
    83005c1c:	00040593          	mv	a1,s0
    83005c20:	01013403          	ld	s0,16(sp)
    83005c24:	01813083          	ld	ra,24(sp)
    83005c28:	02010113          	addi	sp,sp,32
    83005c2c:	00000317          	auipc	t1,0x0
    83005c30:	d1830067          	jr	-744(t1) # 83005944 <__sflush_r>
    83005c34:	00a13423          	sd	a0,8(sp)
    83005c38:	ffffe097          	auipc	ra,0xffffe
    83005c3c:	5b4080e7          	jalr	1460(ra) # 830041ec <__sinit>
    83005c40:	01041783          	lh	a5,16(s0)
    83005c44:	00813503          	ld	a0,8(sp)
    83005c48:	fc0780e3          	beqz	a5,83005c08 <fflush+0x30>
    83005c4c:	fd1ff06f          	j	83005c1c <fflush+0x44>
    83005c50:	00000597          	auipc	a1,0x0
    83005c54:	f2058593          	addi	a1,a1,-224 # 83005b70 <_fflush_r>
    83005c58:	00005517          	auipc	a0,0x5
    83005c5c:	98853503          	ld	a0,-1656(a0) # 8300a5e0 <_global_impure_ptr>
    83005c60:	00000317          	auipc	t1,0x0
    83005c64:	4d030067          	jr	1232(t1) # 83006130 <_fwalk_reent>

0000000083005c68 <__sread>:
    83005c68:	ff010113          	addi	sp,sp,-16
    83005c6c:	00813023          	sd	s0,0(sp)
    83005c70:	00058413          	mv	s0,a1
    83005c74:	01259583          	lh	a1,18(a1)
    83005c78:	00113423          	sd	ra,8(sp)
    83005c7c:	ffffe097          	auipc	ra,0xffffe
    83005c80:	73c080e7          	jalr	1852(ra) # 830043b8 <_read_r>
    83005c84:	02054063          	bltz	a0,83005ca4 <__sread+0x3c>
    83005c88:	09043783          	ld	a5,144(s0)
    83005c8c:	00813083          	ld	ra,8(sp)
    83005c90:	00a787b3          	add	a5,a5,a0
    83005c94:	08f43823          	sd	a5,144(s0)
    83005c98:	00013403          	ld	s0,0(sp)
    83005c9c:	01010113          	addi	sp,sp,16
    83005ca0:	00008067          	ret
    83005ca4:	01045783          	lhu	a5,16(s0)
    83005ca8:	fffff737          	lui	a4,0xfffff
    83005cac:	fff70713          	addi	a4,a4,-1 # ffffffffffffefff <__BSS_END__+0xffffffff7cff437f>
    83005cb0:	00e7f7b3          	and	a5,a5,a4
    83005cb4:	00813083          	ld	ra,8(sp)
    83005cb8:	00f41823          	sh	a5,16(s0)
    83005cbc:	00013403          	ld	s0,0(sp)
    83005cc0:	01010113          	addi	sp,sp,16
    83005cc4:	00008067          	ret

0000000083005cc8 <__seofread>:
    83005cc8:	00000513          	li	a0,0
    83005ccc:	00008067          	ret

0000000083005cd0 <__swrite>:
    83005cd0:	01059783          	lh	a5,16(a1)
    83005cd4:	fd010113          	addi	sp,sp,-48
    83005cd8:	02813023          	sd	s0,32(sp)
    83005cdc:	00913c23          	sd	s1,24(sp)
    83005ce0:	01213823          	sd	s2,16(sp)
    83005ce4:	01313423          	sd	s3,8(sp)
    83005ce8:	02113423          	sd	ra,40(sp)
    83005cec:	1007f713          	andi	a4,a5,256
    83005cf0:	00058413          	mv	s0,a1
    83005cf4:	00050493          	mv	s1,a0
    83005cf8:	00060913          	mv	s2,a2
    83005cfc:	00068993          	mv	s3,a3
    83005d00:	04071263          	bnez	a4,83005d44 <__swrite+0x74>
    83005d04:	fffff737          	lui	a4,0xfffff
    83005d08:	fff70713          	addi	a4,a4,-1 # ffffffffffffefff <__BSS_END__+0xffffffff7cff437f>
    83005d0c:	00e7f7b3          	and	a5,a5,a4
    83005d10:	01241583          	lh	a1,18(s0)
    83005d14:	00f41823          	sh	a5,16(s0)
    83005d18:	02013403          	ld	s0,32(sp)
    83005d1c:	02813083          	ld	ra,40(sp)
    83005d20:	00098693          	mv	a3,s3
    83005d24:	00090613          	mv	a2,s2
    83005d28:	00813983          	ld	s3,8(sp)
    83005d2c:	01013903          	ld	s2,16(sp)
    83005d30:	00048513          	mv	a0,s1
    83005d34:	01813483          	ld	s1,24(sp)
    83005d38:	03010113          	addi	sp,sp,48
    83005d3c:	00001317          	auipc	t1,0x1
    83005d40:	81c30067          	jr	-2020(t1) # 83006558 <_write_r>
    83005d44:	01259583          	lh	a1,18(a1)
    83005d48:	00200693          	li	a3,2
    83005d4c:	00000613          	li	a2,0
    83005d50:	00001097          	auipc	ra,0x1
    83005d54:	870080e7          	jalr	-1936(ra) # 830065c0 <_lseek_r>
    83005d58:	01041783          	lh	a5,16(s0)
    83005d5c:	fa9ff06f          	j	83005d04 <__swrite+0x34>

0000000083005d60 <__sseek>:
    83005d60:	ff010113          	addi	sp,sp,-16
    83005d64:	00813023          	sd	s0,0(sp)
    83005d68:	00058413          	mv	s0,a1
    83005d6c:	01259583          	lh	a1,18(a1)
    83005d70:	00113423          	sd	ra,8(sp)
    83005d74:	00001097          	auipc	ra,0x1
    83005d78:	84c080e7          	jalr	-1972(ra) # 830065c0 <_lseek_r>
    83005d7c:	fff00793          	li	a5,-1
    83005d80:	02f50463          	beq	a0,a5,83005da8 <__sseek+0x48>
    83005d84:	01045783          	lhu	a5,16(s0)
    83005d88:	00001737          	lui	a4,0x1
    83005d8c:	00813083          	ld	ra,8(sp)
    83005d90:	00e7e7b3          	or	a5,a5,a4
    83005d94:	08a43823          	sd	a0,144(s0)
    83005d98:	00f41823          	sh	a5,16(s0)
    83005d9c:	00013403          	ld	s0,0(sp)
    83005da0:	01010113          	addi	sp,sp,16
    83005da4:	00008067          	ret
    83005da8:	01045783          	lhu	a5,16(s0)
    83005dac:	fffff737          	lui	a4,0xfffff
    83005db0:	fff70713          	addi	a4,a4,-1 # ffffffffffffefff <__BSS_END__+0xffffffff7cff437f>
    83005db4:	00e7f7b3          	and	a5,a5,a4
    83005db8:	00813083          	ld	ra,8(sp)
    83005dbc:	00f41823          	sh	a5,16(s0)
    83005dc0:	00013403          	ld	s0,0(sp)
    83005dc4:	01010113          	addi	sp,sp,16
    83005dc8:	00008067          	ret

0000000083005dcc <__sclose>:
    83005dcc:	01259583          	lh	a1,18(a1)
    83005dd0:	00001317          	auipc	t1,0x1
    83005dd4:	afc30067          	jr	-1284(t1) # 830068cc <_close_r>

0000000083005dd8 <_putc_r>:
    83005dd8:	fe010113          	addi	sp,sp,-32
    83005ddc:	01213823          	sd	s2,16(sp)
    83005de0:	00113c23          	sd	ra,24(sp)
    83005de4:	00050913          	mv	s2,a0
    83005de8:	00050663          	beqz	a0,83005df4 <_putc_r+0x1c>
    83005dec:	05052783          	lw	a5,80(a0)
    83005df0:	04078663          	beqz	a5,83005e3c <_putc_r+0x64>
    83005df4:	00c62783          	lw	a5,12(a2)
    83005df8:	fff7871b          	addiw	a4,a5,-1 # fff <main-0x82fff121>
    83005dfc:	00e62623          	sw	a4,12(a2)
    83005e00:	00075c63          	bgez	a4,83005e18 <_putc_r+0x40>
    83005e04:	02862783          	lw	a5,40(a2)
    83005e08:	04f74863          	blt	a4,a5,83005e58 <_putc_r+0x80>
    83005e0c:	0ff5f793          	zext.b	a5,a1
    83005e10:	00a00713          	li	a4,10
    83005e14:	04e78263          	beq	a5,a4,83005e58 <_putc_r+0x80>
    83005e18:	00063783          	ld	a5,0(a2)
    83005e1c:	0ff5f513          	zext.b	a0,a1
    83005e20:	00178713          	addi	a4,a5,1
    83005e24:	00e63023          	sd	a4,0(a2)
    83005e28:	00b78023          	sb	a1,0(a5)
    83005e2c:	01813083          	ld	ra,24(sp)
    83005e30:	01013903          	ld	s2,16(sp)
    83005e34:	02010113          	addi	sp,sp,32
    83005e38:	00008067          	ret
    83005e3c:	00c13423          	sd	a2,8(sp)
    83005e40:	00b13023          	sd	a1,0(sp)
    83005e44:	ffffe097          	auipc	ra,0xffffe
    83005e48:	3a8080e7          	jalr	936(ra) # 830041ec <__sinit>
    83005e4c:	00813603          	ld	a2,8(sp)
    83005e50:	00013583          	ld	a1,0(sp)
    83005e54:	fa1ff06f          	j	83005df4 <_putc_r+0x1c>
    83005e58:	01813083          	ld	ra,24(sp)
    83005e5c:	00090513          	mv	a0,s2
    83005e60:	01013903          	ld	s2,16(sp)
    83005e64:	02010113          	addi	sp,sp,32
    83005e68:	00000317          	auipc	t1,0x0
    83005e6c:	3a030067          	jr	928(t1) # 83006208 <__swbuf_r>

0000000083005e70 <putc>:
    83005e70:	fe010113          	addi	sp,sp,-32
    83005e74:	00813823          	sd	s0,16(sp)
    83005e78:	00913423          	sd	s1,8(sp)
    83005e7c:	01213023          	sd	s2,0(sp)
    83005e80:	00113c23          	sd	ra,24(sp)
    83005e84:	00004917          	auipc	s2,0x4
    83005e88:	7bc93903          	ld	s2,1980(s2) # 8300a640 <_impure_ptr>
    83005e8c:	00050493          	mv	s1,a0
    83005e90:	00058413          	mv	s0,a1
    83005e94:	00090663          	beqz	s2,83005ea0 <putc+0x30>
    83005e98:	05092783          	lw	a5,80(s2)
    83005e9c:	04078a63          	beqz	a5,83005ef0 <putc+0x80>
    83005ea0:	00c42783          	lw	a5,12(s0)
    83005ea4:	fff7871b          	addiw	a4,a5,-1
    83005ea8:	00e42623          	sw	a4,12(s0)
    83005eac:	00075c63          	bgez	a4,83005ec4 <putc+0x54>
    83005eb0:	02842783          	lw	a5,40(s0)
    83005eb4:	04f74663          	blt	a4,a5,83005f00 <putc+0x90>
    83005eb8:	0ff4f793          	zext.b	a5,s1
    83005ebc:	00a00713          	li	a4,10
    83005ec0:	04e78063          	beq	a5,a4,83005f00 <putc+0x90>
    83005ec4:	00043783          	ld	a5,0(s0)
    83005ec8:	0ff4f513          	zext.b	a0,s1
    83005ecc:	00178713          	addi	a4,a5,1
    83005ed0:	00e43023          	sd	a4,0(s0)
    83005ed4:	00978023          	sb	s1,0(a5)
    83005ed8:	01813083          	ld	ra,24(sp)
    83005edc:	01013403          	ld	s0,16(sp)
    83005ee0:	00813483          	ld	s1,8(sp)
    83005ee4:	00013903          	ld	s2,0(sp)
    83005ee8:	02010113          	addi	sp,sp,32
    83005eec:	00008067          	ret
    83005ef0:	00090513          	mv	a0,s2
    83005ef4:	ffffe097          	auipc	ra,0xffffe
    83005ef8:	2f8080e7          	jalr	760(ra) # 830041ec <__sinit>
    83005efc:	fa5ff06f          	j	83005ea0 <putc+0x30>
    83005f00:	00040613          	mv	a2,s0
    83005f04:	01013403          	ld	s0,16(sp)
    83005f08:	01813083          	ld	ra,24(sp)
    83005f0c:	00048593          	mv	a1,s1
    83005f10:	00090513          	mv	a0,s2
    83005f14:	00813483          	ld	s1,8(sp)
    83005f18:	00013903          	ld	s2,0(sp)
    83005f1c:	02010113          	addi	sp,sp,32
    83005f20:	00000317          	auipc	t1,0x0
    83005f24:	2e830067          	jr	744(t1) # 83006208 <__swbuf_r>

0000000083005f28 <_fclose_r>:
    83005f28:	fe010113          	addi	sp,sp,-32
    83005f2c:	00113c23          	sd	ra,24(sp)
    83005f30:	00813823          	sd	s0,16(sp)
    83005f34:	00913423          	sd	s1,8(sp)
    83005f38:	01213023          	sd	s2,0(sp)
    83005f3c:	02058063          	beqz	a1,83005f5c <_fclose_r+0x34>
    83005f40:	00058413          	mv	s0,a1
    83005f44:	00050493          	mv	s1,a0
    83005f48:	00050663          	beqz	a0,83005f54 <_fclose_r+0x2c>
    83005f4c:	05052783          	lw	a5,80(a0)
    83005f50:	0c078663          	beqz	a5,8300601c <_fclose_r+0xf4>
    83005f54:	01041783          	lh	a5,16(s0)
    83005f58:	02079263          	bnez	a5,83005f7c <_fclose_r+0x54>
    83005f5c:	01813083          	ld	ra,24(sp)
    83005f60:	01013403          	ld	s0,16(sp)
    83005f64:	00000913          	li	s2,0
    83005f68:	00813483          	ld	s1,8(sp)
    83005f6c:	00090513          	mv	a0,s2
    83005f70:	00013903          	ld	s2,0(sp)
    83005f74:	02010113          	addi	sp,sp,32
    83005f78:	00008067          	ret
    83005f7c:	00040593          	mv	a1,s0
    83005f80:	00048513          	mv	a0,s1
    83005f84:	00000097          	auipc	ra,0x0
    83005f88:	9c0080e7          	jalr	-1600(ra) # 83005944 <__sflush_r>
    83005f8c:	05043783          	ld	a5,80(s0)
    83005f90:	00050913          	mv	s2,a0
    83005f94:	00078a63          	beqz	a5,83005fa8 <_fclose_r+0x80>
    83005f98:	03043583          	ld	a1,48(s0)
    83005f9c:	00048513          	mv	a0,s1
    83005fa0:	000780e7          	jalr	a5
    83005fa4:	08054663          	bltz	a0,83006030 <_fclose_r+0x108>
    83005fa8:	01045783          	lhu	a5,16(s0)
    83005fac:	0807f793          	andi	a5,a5,128
    83005fb0:	08079863          	bnez	a5,83006040 <_fclose_r+0x118>
    83005fb4:	05843583          	ld	a1,88(s0)
    83005fb8:	00058e63          	beqz	a1,83005fd4 <_fclose_r+0xac>
    83005fbc:	07440793          	addi	a5,s0,116
    83005fc0:	00f58863          	beq	a1,a5,83005fd0 <_fclose_r+0xa8>
    83005fc4:	00048513          	mv	a0,s1
    83005fc8:	fffff097          	auipc	ra,0xfffff
    83005fcc:	ec4080e7          	jalr	-316(ra) # 83004e8c <_free_r>
    83005fd0:	04043c23          	sd	zero,88(s0)
    83005fd4:	07843583          	ld	a1,120(s0)
    83005fd8:	00058a63          	beqz	a1,83005fec <_fclose_r+0xc4>
    83005fdc:	00048513          	mv	a0,s1
    83005fe0:	fffff097          	auipc	ra,0xfffff
    83005fe4:	eac080e7          	jalr	-340(ra) # 83004e8c <_free_r>
    83005fe8:	06043c23          	sd	zero,120(s0)
    83005fec:	ffffe097          	auipc	ra,0xffffe
    83005ff0:	214080e7          	jalr	532(ra) # 83004200 <__sfp_lock_acquire>
    83005ff4:	00041823          	sh	zero,16(s0)
    83005ff8:	ffffe097          	auipc	ra,0xffffe
    83005ffc:	20c080e7          	jalr	524(ra) # 83004204 <__sfp_lock_release>
    83006000:	01813083          	ld	ra,24(sp)
    83006004:	01013403          	ld	s0,16(sp)
    83006008:	00813483          	ld	s1,8(sp)
    8300600c:	00090513          	mv	a0,s2
    83006010:	00013903          	ld	s2,0(sp)
    83006014:	02010113          	addi	sp,sp,32
    83006018:	00008067          	ret
    8300601c:	ffffe097          	auipc	ra,0xffffe
    83006020:	1d0080e7          	jalr	464(ra) # 830041ec <__sinit>
    83006024:	01041783          	lh	a5,16(s0)
    83006028:	f2078ae3          	beqz	a5,83005f5c <_fclose_r+0x34>
    8300602c:	f51ff06f          	j	83005f7c <_fclose_r+0x54>
    83006030:	01045783          	lhu	a5,16(s0)
    83006034:	fff00913          	li	s2,-1
    83006038:	0807f793          	andi	a5,a5,128
    8300603c:	f6078ce3          	beqz	a5,83005fb4 <_fclose_r+0x8c>
    83006040:	01843583          	ld	a1,24(s0)
    83006044:	00048513          	mv	a0,s1
    83006048:	fffff097          	auipc	ra,0xfffff
    8300604c:	e44080e7          	jalr	-444(ra) # 83004e8c <_free_r>
    83006050:	f65ff06f          	j	83005fb4 <_fclose_r+0x8c>

0000000083006054 <fclose>:
    83006054:	00050593          	mv	a1,a0
    83006058:	00004517          	auipc	a0,0x4
    8300605c:	5e853503          	ld	a0,1512(a0) # 8300a640 <_impure_ptr>
    83006060:	00000317          	auipc	t1,0x0
    83006064:	ec830067          	jr	-312(t1) # 83005f28 <_fclose_r>

0000000083006068 <_fwalk>:
    83006068:	fc010113          	addi	sp,sp,-64
    8300606c:	03213023          	sd	s2,32(sp)
    83006070:	01313c23          	sd	s3,24(sp)
    83006074:	01413823          	sd	s4,16(sp)
    83006078:	01513423          	sd	s5,8(sp)
    8300607c:	01613023          	sd	s6,0(sp)
    83006080:	02113c23          	sd	ra,56(sp)
    83006084:	02813823          	sd	s0,48(sp)
    83006088:	02913423          	sd	s1,40(sp)
    8300608c:	00058a93          	mv	s5,a1
    83006090:	52050993          	addi	s3,a0,1312
    83006094:	00000913          	li	s2,0
    83006098:	00100b13          	li	s6,1
    8300609c:	fff00a13          	li	s4,-1
    830060a0:	0089a783          	lw	a5,8(s3)
    830060a4:	0109b403          	ld	s0,16(s3)
    830060a8:	04f05a63          	blez	a5,830060fc <_fwalk+0x94>
    830060ac:	fff7879b          	addiw	a5,a5,-1
    830060b0:	02079793          	slli	a5,a5,0x20
    830060b4:	0207d793          	srli	a5,a5,0x20
    830060b8:	00178793          	addi	a5,a5,1
    830060bc:	00179493          	slli	s1,a5,0x1
    830060c0:	00f484b3          	add	s1,s1,a5
    830060c4:	00249493          	slli	s1,s1,0x2
    830060c8:	40f484b3          	sub	s1,s1,a5
    830060cc:	00449493          	slli	s1,s1,0x4
    830060d0:	009404b3          	add	s1,s0,s1
    830060d4:	01045783          	lhu	a5,16(s0)
    830060d8:	00fb7e63          	bgeu	s6,a5,830060f4 <_fwalk+0x8c>
    830060dc:	01241783          	lh	a5,18(s0)
    830060e0:	00040513          	mv	a0,s0
    830060e4:	01478863          	beq	a5,s4,830060f4 <_fwalk+0x8c>
    830060e8:	000a80e7          	jalr	s5
    830060ec:	01256933          	or	s2,a0,s2
    830060f0:	0009091b          	sext.w	s2,s2
    830060f4:	0b040413          	addi	s0,s0,176
    830060f8:	fc849ee3          	bne	s1,s0,830060d4 <_fwalk+0x6c>
    830060fc:	0009b983          	ld	s3,0(s3)
    83006100:	fa0990e3          	bnez	s3,830060a0 <_fwalk+0x38>
    83006104:	03813083          	ld	ra,56(sp)
    83006108:	03013403          	ld	s0,48(sp)
    8300610c:	02813483          	ld	s1,40(sp)
    83006110:	01813983          	ld	s3,24(sp)
    83006114:	01013a03          	ld	s4,16(sp)
    83006118:	00813a83          	ld	s5,8(sp)
    8300611c:	00013b03          	ld	s6,0(sp)
    83006120:	00090513          	mv	a0,s2
    83006124:	02013903          	ld	s2,32(sp)
    83006128:	04010113          	addi	sp,sp,64
    8300612c:	00008067          	ret

0000000083006130 <_fwalk_reent>:
    83006130:	fb010113          	addi	sp,sp,-80
    83006134:	03213823          	sd	s2,48(sp)
    83006138:	03313423          	sd	s3,40(sp)
    8300613c:	03413023          	sd	s4,32(sp)
    83006140:	01513c23          	sd	s5,24(sp)
    83006144:	01613823          	sd	s6,16(sp)
    83006148:	01713423          	sd	s7,8(sp)
    8300614c:	04113423          	sd	ra,72(sp)
    83006150:	04813023          	sd	s0,64(sp)
    83006154:	02913c23          	sd	s1,56(sp)
    83006158:	00050b93          	mv	s7,a0
    8300615c:	00058a93          	mv	s5,a1
    83006160:	52050993          	addi	s3,a0,1312
    83006164:	00000913          	li	s2,0
    83006168:	00100b13          	li	s6,1
    8300616c:	fff00a13          	li	s4,-1
    83006170:	0089a783          	lw	a5,8(s3)
    83006174:	0109b403          	ld	s0,16(s3)
    83006178:	04f05c63          	blez	a5,830061d0 <_fwalk_reent+0xa0>
    8300617c:	fff7879b          	addiw	a5,a5,-1
    83006180:	02079793          	slli	a5,a5,0x20
    83006184:	0207d793          	srli	a5,a5,0x20
    83006188:	00178793          	addi	a5,a5,1
    8300618c:	00179493          	slli	s1,a5,0x1
    83006190:	00f484b3          	add	s1,s1,a5
    83006194:	00249493          	slli	s1,s1,0x2
    83006198:	40f484b3          	sub	s1,s1,a5
    8300619c:	00449493          	slli	s1,s1,0x4
    830061a0:	009404b3          	add	s1,s0,s1
    830061a4:	01045783          	lhu	a5,16(s0)
    830061a8:	02fb7063          	bgeu	s6,a5,830061c8 <_fwalk_reent+0x98>
    830061ac:	01241783          	lh	a5,18(s0)
    830061b0:	00040593          	mv	a1,s0
    830061b4:	000b8513          	mv	a0,s7
    830061b8:	01478863          	beq	a5,s4,830061c8 <_fwalk_reent+0x98>
    830061bc:	000a80e7          	jalr	s5
    830061c0:	01256933          	or	s2,a0,s2
    830061c4:	0009091b          	sext.w	s2,s2
    830061c8:	0b040413          	addi	s0,s0,176
    830061cc:	fc849ce3          	bne	s1,s0,830061a4 <_fwalk_reent+0x74>
    830061d0:	0009b983          	ld	s3,0(s3)
    830061d4:	f8099ee3          	bnez	s3,83006170 <_fwalk_reent+0x40>
    830061d8:	04813083          	ld	ra,72(sp)
    830061dc:	04013403          	ld	s0,64(sp)
    830061e0:	03813483          	ld	s1,56(sp)
    830061e4:	02813983          	ld	s3,40(sp)
    830061e8:	02013a03          	ld	s4,32(sp)
    830061ec:	01813a83          	ld	s5,24(sp)
    830061f0:	01013b03          	ld	s6,16(sp)
    830061f4:	00813b83          	ld	s7,8(sp)
    830061f8:	00090513          	mv	a0,s2
    830061fc:	03013903          	ld	s2,48(sp)
    83006200:	05010113          	addi	sp,sp,80
    83006204:	00008067          	ret

0000000083006208 <__swbuf_r>:
    83006208:	fd010113          	addi	sp,sp,-48
    8300620c:	02813023          	sd	s0,32(sp)
    83006210:	00913c23          	sd	s1,24(sp)
    83006214:	01213823          	sd	s2,16(sp)
    83006218:	02113423          	sd	ra,40(sp)
    8300621c:	01313423          	sd	s3,8(sp)
    83006220:	00050913          	mv	s2,a0
    83006224:	00058493          	mv	s1,a1
    83006228:	00060413          	mv	s0,a2
    8300622c:	00050663          	beqz	a0,83006238 <__swbuf_r+0x30>
    83006230:	05052783          	lw	a5,80(a0)
    83006234:	10078c63          	beqz	a5,8300634c <__swbuf_r+0x144>
    83006238:	02842703          	lw	a4,40(s0)
    8300623c:	01045783          	lhu	a5,16(s0)
    83006240:	00e42623          	sw	a4,12(s0)
    83006244:	0087f793          	andi	a5,a5,8
    83006248:	06078e63          	beqz	a5,830062c4 <__swbuf_r+0xbc>
    8300624c:	01843783          	ld	a5,24(s0)
    83006250:	06078a63          	beqz	a5,830062c4 <__swbuf_r+0xbc>
    83006254:	00043703          	ld	a4,0(s0)
    83006258:	02042683          	lw	a3,32(s0)
    8300625c:	0ff4f993          	zext.b	s3,s1
    83006260:	40f707bb          	subw	a5,a4,a5
    83006264:	00098493          	mv	s1,s3
    83006268:	08d7d663          	bge	a5,a3,830062f4 <__swbuf_r+0xec>
    8300626c:	00c42683          	lw	a3,12(s0)
    83006270:	00170613          	addi	a2,a4,1
    83006274:	00c43023          	sd	a2,0(s0)
    83006278:	fff6869b          	addiw	a3,a3,-1 # fff <main-0x82fff121>
    8300627c:	00d42623          	sw	a3,12(s0)
    83006280:	01370023          	sb	s3,0(a4)
    83006284:	02042703          	lw	a4,32(s0)
    83006288:	0017879b          	addiw	a5,a5,1
    8300628c:	0af70263          	beq	a4,a5,83006330 <__swbuf_r+0x128>
    83006290:	01045783          	lhu	a5,16(s0)
    83006294:	0017f793          	andi	a5,a5,1
    83006298:	00078663          	beqz	a5,830062a4 <__swbuf_r+0x9c>
    8300629c:	00a00793          	li	a5,10
    830062a0:	08f48863          	beq	s1,a5,83006330 <__swbuf_r+0x128>
    830062a4:	02813083          	ld	ra,40(sp)
    830062a8:	02013403          	ld	s0,32(sp)
    830062ac:	01013903          	ld	s2,16(sp)
    830062b0:	00813983          	ld	s3,8(sp)
    830062b4:	00048513          	mv	a0,s1
    830062b8:	01813483          	ld	s1,24(sp)
    830062bc:	03010113          	addi	sp,sp,48
    830062c0:	00008067          	ret
    830062c4:	00040593          	mv	a1,s0
    830062c8:	00090513          	mv	a0,s2
    830062cc:	ffffe097          	auipc	ra,0xffffe
    830062d0:	f74080e7          	jalr	-140(ra) # 83004240 <__swsetup_r>
    830062d4:	06051863          	bnez	a0,83006344 <__swbuf_r+0x13c>
    830062d8:	01843783          	ld	a5,24(s0)
    830062dc:	00043703          	ld	a4,0(s0)
    830062e0:	02042683          	lw	a3,32(s0)
    830062e4:	0ff4f993          	zext.b	s3,s1
    830062e8:	40f707bb          	subw	a5,a4,a5
    830062ec:	00098493          	mv	s1,s3
    830062f0:	f6d7cee3          	blt	a5,a3,8300626c <__swbuf_r+0x64>
    830062f4:	00040593          	mv	a1,s0
    830062f8:	00090513          	mv	a0,s2
    830062fc:	00000097          	auipc	ra,0x0
    83006300:	874080e7          	jalr	-1932(ra) # 83005b70 <_fflush_r>
    83006304:	04051063          	bnez	a0,83006344 <__swbuf_r+0x13c>
    83006308:	00043703          	ld	a4,0(s0)
    8300630c:	00c42683          	lw	a3,12(s0)
    83006310:	00100793          	li	a5,1
    83006314:	00170613          	addi	a2,a4,1
    83006318:	fff6869b          	addiw	a3,a3,-1
    8300631c:	00c43023          	sd	a2,0(s0)
    83006320:	00d42623          	sw	a3,12(s0)
    83006324:	01370023          	sb	s3,0(a4)
    83006328:	02042703          	lw	a4,32(s0)
    8300632c:	f6f712e3          	bne	a4,a5,83006290 <__swbuf_r+0x88>
    83006330:	00040593          	mv	a1,s0
    83006334:	00090513          	mv	a0,s2
    83006338:	00000097          	auipc	ra,0x0
    8300633c:	838080e7          	jalr	-1992(ra) # 83005b70 <_fflush_r>
    83006340:	f60502e3          	beqz	a0,830062a4 <__swbuf_r+0x9c>
    83006344:	fff00493          	li	s1,-1
    83006348:	f5dff06f          	j	830062a4 <__swbuf_r+0x9c>
    8300634c:	ffffe097          	auipc	ra,0xffffe
    83006350:	ea0080e7          	jalr	-352(ra) # 830041ec <__sinit>
    83006354:	ee5ff06f          	j	83006238 <__swbuf_r+0x30>

0000000083006358 <__swbuf>:
    83006358:	00058613          	mv	a2,a1
    8300635c:	00050593          	mv	a1,a0
    83006360:	00004517          	auipc	a0,0x4
    83006364:	2e053503          	ld	a0,736(a0) # 8300a640 <_impure_ptr>
    83006368:	00000317          	auipc	t1,0x0
    8300636c:	ea030067          	jr	-352(t1) # 83006208 <__swbuf_r>

0000000083006370 <__smakebuf_r>:
    83006370:	0105d783          	lhu	a5,16(a1)
    83006374:	f6010113          	addi	sp,sp,-160
    83006378:	08813823          	sd	s0,144(sp)
    8300637c:	08113c23          	sd	ra,152(sp)
    83006380:	08913423          	sd	s1,136(sp)
    83006384:	09213023          	sd	s2,128(sp)
    83006388:	07313c23          	sd	s3,120(sp)
    8300638c:	0027f713          	andi	a4,a5,2
    83006390:	00058413          	mv	s0,a1
    83006394:	02070a63          	beqz	a4,830063c8 <__smakebuf_r+0x58>
    83006398:	07758793          	addi	a5,a1,119
    8300639c:	00f5b023          	sd	a5,0(a1)
    830063a0:	00f5bc23          	sd	a5,24(a1)
    830063a4:	00100793          	li	a5,1
    830063a8:	02f5a023          	sw	a5,32(a1)
    830063ac:	09813083          	ld	ra,152(sp)
    830063b0:	09013403          	ld	s0,144(sp)
    830063b4:	08813483          	ld	s1,136(sp)
    830063b8:	08013903          	ld	s2,128(sp)
    830063bc:	07813983          	ld	s3,120(sp)
    830063c0:	0a010113          	addi	sp,sp,160
    830063c4:	00008067          	ret
    830063c8:	01259583          	lh	a1,18(a1)
    830063cc:	00050493          	mv	s1,a0
    830063d0:	0805cc63          	bltz	a1,83006468 <__smakebuf_r+0xf8>
    830063d4:	00810613          	addi	a2,sp,8
    830063d8:	00000097          	auipc	ra,0x0
    830063dc:	250080e7          	jalr	592(ra) # 83006628 <_fstat_r>
    830063e0:	08054263          	bltz	a0,83006464 <__smakebuf_r+0xf4>
    830063e4:	00c12903          	lw	s2,12(sp)
    830063e8:	0000f7b7          	lui	a5,0xf
    830063ec:	00f97933          	and	s2,s2,a5
    830063f0:	000027b7          	lui	a5,0x2
    830063f4:	40f90933          	sub	s2,s2,a5
    830063f8:	00193913          	seqz	s2,s2
    830063fc:	40000993          	li	s3,1024
    83006400:	00098593          	mv	a1,s3
    83006404:	00048513          	mv	a0,s1
    83006408:	ffffe097          	auipc	ra,0xffffe
    8300640c:	018080e7          	jalr	24(ra) # 83004420 <_malloc_r>
    83006410:	06050e63          	beqz	a0,8300648c <__smakebuf_r+0x11c>
    83006414:	01045783          	lhu	a5,16(s0)
    83006418:	ffffe717          	auipc	a4,0xffffe
    8300641c:	a4870713          	addi	a4,a4,-1464 # 83003e60 <_cleanup_r>
    83006420:	04e4bc23          	sd	a4,88(s1)
    83006424:	0807e793          	ori	a5,a5,128
    83006428:	00f41823          	sh	a5,16(s0)
    8300642c:	00a43023          	sd	a0,0(s0)
    83006430:	00a43c23          	sd	a0,24(s0)
    83006434:	03342023          	sw	s3,32(s0)
    83006438:	f6090ae3          	beqz	s2,830063ac <__smakebuf_r+0x3c>
    8300643c:	01241583          	lh	a1,18(s0)
    83006440:	00048513          	mv	a0,s1
    83006444:	00000097          	auipc	ra,0x0
    83006448:	4e4080e7          	jalr	1252(ra) # 83006928 <_isatty_r>
    8300644c:	f60500e3          	beqz	a0,830063ac <__smakebuf_r+0x3c>
    83006450:	01045783          	lhu	a5,16(s0)
    83006454:	ffc7f793          	andi	a5,a5,-4
    83006458:	0017e793          	ori	a5,a5,1
    8300645c:	00f41823          	sh	a5,16(s0)
    83006460:	f4dff06f          	j	830063ac <__smakebuf_r+0x3c>
    83006464:	01045783          	lhu	a5,16(s0)
    83006468:	0807f793          	andi	a5,a5,128
    8300646c:	00000913          	li	s2,0
    83006470:	04000993          	li	s3,64
    83006474:	f80784e3          	beqz	a5,830063fc <__smakebuf_r+0x8c>
    83006478:	00098593          	mv	a1,s3
    8300647c:	00048513          	mv	a0,s1
    83006480:	ffffe097          	auipc	ra,0xffffe
    83006484:	fa0080e7          	jalr	-96(ra) # 83004420 <_malloc_r>
    83006488:	f80516e3          	bnez	a0,83006414 <__smakebuf_r+0xa4>
    8300648c:	01041783          	lh	a5,16(s0)
    83006490:	2007f713          	andi	a4,a5,512
    83006494:	f0071ce3          	bnez	a4,830063ac <__smakebuf_r+0x3c>
    83006498:	ffc7f793          	andi	a5,a5,-4
    8300649c:	0027e793          	ori	a5,a5,2
    830064a0:	07740713          	addi	a4,s0,119
    830064a4:	00f41823          	sh	a5,16(s0)
    830064a8:	00100793          	li	a5,1
    830064ac:	00e43023          	sd	a4,0(s0)
    830064b0:	00e43c23          	sd	a4,24(s0)
    830064b4:	02f42023          	sw	a5,32(s0)
    830064b8:	ef5ff06f          	j	830063ac <__smakebuf_r+0x3c>

00000000830064bc <__swhatbuf_r>:
    830064bc:	f7010113          	addi	sp,sp,-144
    830064c0:	08813023          	sd	s0,128(sp)
    830064c4:	00058413          	mv	s0,a1
    830064c8:	01259583          	lh	a1,18(a1)
    830064cc:	06913c23          	sd	s1,120(sp)
    830064d0:	07213823          	sd	s2,112(sp)
    830064d4:	08113423          	sd	ra,136(sp)
    830064d8:	00060493          	mv	s1,a2
    830064dc:	00068913          	mv	s2,a3
    830064e0:	0405ca63          	bltz	a1,83006534 <__swhatbuf_r+0x78>
    830064e4:	00810613          	addi	a2,sp,8
    830064e8:	00000097          	auipc	ra,0x0
    830064ec:	140080e7          	jalr	320(ra) # 83006628 <_fstat_r>
    830064f0:	04054263          	bltz	a0,83006534 <__swhatbuf_r+0x78>
    830064f4:	00c12783          	lw	a5,12(sp)
    830064f8:	0000f737          	lui	a4,0xf
    830064fc:	00e7f7b3          	and	a5,a5,a4
    83006500:	00002737          	lui	a4,0x2
    83006504:	40e787b3          	sub	a5,a5,a4
    83006508:	0017b793          	seqz	a5,a5
    8300650c:	40000713          	li	a4,1024
    83006510:	08813083          	ld	ra,136(sp)
    83006514:	08013403          	ld	s0,128(sp)
    83006518:	00f92023          	sw	a5,0(s2)
    8300651c:	00e4b023          	sd	a4,0(s1)
    83006520:	07013903          	ld	s2,112(sp)
    83006524:	07813483          	ld	s1,120(sp)
    83006528:	00000513          	li	a0,0
    8300652c:	09010113          	addi	sp,sp,144
    83006530:	00008067          	ret
    83006534:	01045783          	lhu	a5,16(s0)
    83006538:	0807f793          	andi	a5,a5,128
    8300653c:	00078863          	beqz	a5,8300654c <__swhatbuf_r+0x90>
    83006540:	00000793          	li	a5,0
    83006544:	04000713          	li	a4,64
    83006548:	fc9ff06f          	j	83006510 <__swhatbuf_r+0x54>
    8300654c:	00000793          	li	a5,0
    83006550:	40000713          	li	a4,1024
    83006554:	fbdff06f          	j	83006510 <__swhatbuf_r+0x54>

0000000083006558 <_write_r>:
    83006558:	ff010113          	addi	sp,sp,-16
    8300655c:	00058713          	mv	a4,a1
    83006560:	00813023          	sd	s0,0(sp)
    83006564:	00060593          	mv	a1,a2
    83006568:	00050413          	mv	s0,a0
    8300656c:	00068613          	mv	a2,a3
    83006570:	00070513          	mv	a0,a4
    83006574:	00004797          	auipc	a5,0x4
    83006578:	1007a623          	sw	zero,268(a5) # 8300a680 <errno>
    8300657c:	00113423          	sd	ra,8(sp)
    83006580:	00001097          	auipc	ra,0x1
    83006584:	b88080e7          	jalr	-1144(ra) # 83007108 <_write>
    83006588:	fff00793          	li	a5,-1
    8300658c:	00f50a63          	beq	a0,a5,830065a0 <_write_r+0x48>
    83006590:	00813083          	ld	ra,8(sp)
    83006594:	00013403          	ld	s0,0(sp)
    83006598:	01010113          	addi	sp,sp,16
    8300659c:	00008067          	ret
    830065a0:	00004797          	auipc	a5,0x4
    830065a4:	0e07a783          	lw	a5,224(a5) # 8300a680 <errno>
    830065a8:	fe0784e3          	beqz	a5,83006590 <_write_r+0x38>
    830065ac:	00813083          	ld	ra,8(sp)
    830065b0:	00f42023          	sw	a5,0(s0)
    830065b4:	00013403          	ld	s0,0(sp)
    830065b8:	01010113          	addi	sp,sp,16
    830065bc:	00008067          	ret

00000000830065c0 <_lseek_r>:
    830065c0:	ff010113          	addi	sp,sp,-16
    830065c4:	00058713          	mv	a4,a1
    830065c8:	00813023          	sd	s0,0(sp)
    830065cc:	00060593          	mv	a1,a2
    830065d0:	00050413          	mv	s0,a0
    830065d4:	00068613          	mv	a2,a3
    830065d8:	00070513          	mv	a0,a4
    830065dc:	00004797          	auipc	a5,0x4
    830065e0:	0a07a223          	sw	zero,164(a5) # 8300a680 <errno>
    830065e4:	00113423          	sd	ra,8(sp)
    830065e8:	00001097          	auipc	ra,0x1
    830065ec:	b94080e7          	jalr	-1132(ra) # 8300717c <_lseek>
    830065f0:	fff00793          	li	a5,-1
    830065f4:	00f50a63          	beq	a0,a5,83006608 <_lseek_r+0x48>
    830065f8:	00813083          	ld	ra,8(sp)
    830065fc:	00013403          	ld	s0,0(sp)
    83006600:	01010113          	addi	sp,sp,16
    83006604:	00008067          	ret
    83006608:	00004797          	auipc	a5,0x4
    8300660c:	0787a783          	lw	a5,120(a5) # 8300a680 <errno>
    83006610:	fe0784e3          	beqz	a5,830065f8 <_lseek_r+0x38>
    83006614:	00813083          	ld	ra,8(sp)
    83006618:	00f42023          	sw	a5,0(s0)
    8300661c:	00013403          	ld	s0,0(sp)
    83006620:	01010113          	addi	sp,sp,16
    83006624:	00008067          	ret

0000000083006628 <_fstat_r>:
    83006628:	ff010113          	addi	sp,sp,-16
    8300662c:	00058713          	mv	a4,a1
    83006630:	00813023          	sd	s0,0(sp)
    83006634:	00060593          	mv	a1,a2
    83006638:	00050413          	mv	s0,a0
    8300663c:	00070513          	mv	a0,a4
    83006640:	00004797          	auipc	a5,0x4
    83006644:	0407a023          	sw	zero,64(a5) # 8300a680 <errno>
    83006648:	00113423          	sd	ra,8(sp)
    8300664c:	00001097          	auipc	ra,0x1
    83006650:	b60080e7          	jalr	-1184(ra) # 830071ac <_fstat>
    83006654:	fff00793          	li	a5,-1
    83006658:	00f50a63          	beq	a0,a5,8300666c <_fstat_r+0x44>
    8300665c:	00813083          	ld	ra,8(sp)
    83006660:	00013403          	ld	s0,0(sp)
    83006664:	01010113          	addi	sp,sp,16
    83006668:	00008067          	ret
    8300666c:	00004797          	auipc	a5,0x4
    83006670:	0147a783          	lw	a5,20(a5) # 8300a680 <errno>
    83006674:	fe0784e3          	beqz	a5,8300665c <_fstat_r+0x34>
    83006678:	00813083          	ld	ra,8(sp)
    8300667c:	00f42023          	sw	a5,0(s0)
    83006680:	00013403          	ld	s0,0(sp)
    83006684:	01010113          	addi	sp,sp,16
    83006688:	00008067          	ret

000000008300668c <_sbrk_r>:
    8300668c:	ff010113          	addi	sp,sp,-16
    83006690:	00813023          	sd	s0,0(sp)
    83006694:	00050413          	mv	s0,a0
    83006698:	00058513          	mv	a0,a1
    8300669c:	00004797          	auipc	a5,0x4
    830066a0:	fe07a223          	sw	zero,-28(a5) # 8300a680 <errno>
    830066a4:	00113423          	sd	ra,8(sp)
    830066a8:	00001097          	auipc	ra,0x1
    830066ac:	a70080e7          	jalr	-1424(ra) # 83007118 <_sbrk>
    830066b0:	fff00793          	li	a5,-1
    830066b4:	00f50a63          	beq	a0,a5,830066c8 <_sbrk_r+0x3c>
    830066b8:	00813083          	ld	ra,8(sp)
    830066bc:	00013403          	ld	s0,0(sp)
    830066c0:	01010113          	addi	sp,sp,16
    830066c4:	00008067          	ret
    830066c8:	00004797          	auipc	a5,0x4
    830066cc:	fb87a783          	lw	a5,-72(a5) # 8300a680 <errno>
    830066d0:	fe0784e3          	beqz	a5,830066b8 <_sbrk_r+0x2c>
    830066d4:	00813083          	ld	ra,8(sp)
    830066d8:	00f42023          	sw	a5,0(s0)
    830066dc:	00013403          	ld	s0,0(sp)
    830066e0:	01010113          	addi	sp,sp,16
    830066e4:	00008067          	ret

00000000830066e8 <cleanup_glue>:
    830066e8:	fd010113          	addi	sp,sp,-48
    830066ec:	01213823          	sd	s2,16(sp)
    830066f0:	0005b903          	ld	s2,0(a1)
    830066f4:	02813023          	sd	s0,32(sp)
    830066f8:	00913c23          	sd	s1,24(sp)
    830066fc:	02113423          	sd	ra,40(sp)
    83006700:	01313423          	sd	s3,8(sp)
    83006704:	01413023          	sd	s4,0(sp)
    83006708:	00058413          	mv	s0,a1
    8300670c:	00050493          	mv	s1,a0
    83006710:	04090a63          	beqz	s2,83006764 <cleanup_glue+0x7c>
    83006714:	00093983          	ld	s3,0(s2)
    83006718:	02098e63          	beqz	s3,83006754 <cleanup_glue+0x6c>
    8300671c:	0009ba03          	ld	s4,0(s3)
    83006720:	020a0263          	beqz	s4,83006744 <cleanup_glue+0x5c>
    83006724:	000a3583          	ld	a1,0(s4)
    83006728:	00058663          	beqz	a1,83006734 <cleanup_glue+0x4c>
    8300672c:	00000097          	auipc	ra,0x0
    83006730:	fbc080e7          	jalr	-68(ra) # 830066e8 <cleanup_glue>
    83006734:	000a0593          	mv	a1,s4
    83006738:	00048513          	mv	a0,s1
    8300673c:	ffffe097          	auipc	ra,0xffffe
    83006740:	750080e7          	jalr	1872(ra) # 83004e8c <_free_r>
    83006744:	00098593          	mv	a1,s3
    83006748:	00048513          	mv	a0,s1
    8300674c:	ffffe097          	auipc	ra,0xffffe
    83006750:	740080e7          	jalr	1856(ra) # 83004e8c <_free_r>
    83006754:	00090593          	mv	a1,s2
    83006758:	00048513          	mv	a0,s1
    8300675c:	ffffe097          	auipc	ra,0xffffe
    83006760:	730080e7          	jalr	1840(ra) # 83004e8c <_free_r>
    83006764:	00040593          	mv	a1,s0
    83006768:	02013403          	ld	s0,32(sp)
    8300676c:	02813083          	ld	ra,40(sp)
    83006770:	01013903          	ld	s2,16(sp)
    83006774:	00813983          	ld	s3,8(sp)
    83006778:	00013a03          	ld	s4,0(sp)
    8300677c:	00048513          	mv	a0,s1
    83006780:	01813483          	ld	s1,24(sp)
    83006784:	03010113          	addi	sp,sp,48
    83006788:	ffffe317          	auipc	t1,0xffffe
    8300678c:	70430067          	jr	1796(t1) # 83004e8c <_free_r>

0000000083006790 <_reclaim_reent>:
    83006790:	00004797          	auipc	a5,0x4
    83006794:	eb07b783          	ld	a5,-336(a5) # 8300a640 <_impure_ptr>
    83006798:	12a78863          	beq	a5,a0,830068c8 <_reclaim_reent+0x138>
    8300679c:	07853583          	ld	a1,120(a0)
    830067a0:	fd010113          	addi	sp,sp,-48
    830067a4:	00913c23          	sd	s1,24(sp)
    830067a8:	02113423          	sd	ra,40(sp)
    830067ac:	02813023          	sd	s0,32(sp)
    830067b0:	01213823          	sd	s2,16(sp)
    830067b4:	01313423          	sd	s3,8(sp)
    830067b8:	00050493          	mv	s1,a0
    830067bc:	04058463          	beqz	a1,83006804 <_reclaim_reent+0x74>
    830067c0:	00000913          	li	s2,0
    830067c4:	20000993          	li	s3,512
    830067c8:	012587b3          	add	a5,a1,s2
    830067cc:	0007b403          	ld	s0,0(a5)
    830067d0:	02040063          	beqz	s0,830067f0 <_reclaim_reent+0x60>
    830067d4:	00040593          	mv	a1,s0
    830067d8:	00043403          	ld	s0,0(s0)
    830067dc:	00048513          	mv	a0,s1
    830067e0:	ffffe097          	auipc	ra,0xffffe
    830067e4:	6ac080e7          	jalr	1708(ra) # 83004e8c <_free_r>
    830067e8:	fe0416e3          	bnez	s0,830067d4 <_reclaim_reent+0x44>
    830067ec:	0784b583          	ld	a1,120(s1)
    830067f0:	00890913          	addi	s2,s2,8
    830067f4:	fd391ae3          	bne	s2,s3,830067c8 <_reclaim_reent+0x38>
    830067f8:	00048513          	mv	a0,s1
    830067fc:	ffffe097          	auipc	ra,0xffffe
    83006800:	690080e7          	jalr	1680(ra) # 83004e8c <_free_r>
    83006804:	0604b583          	ld	a1,96(s1)
    83006808:	00058863          	beqz	a1,83006818 <_reclaim_reent+0x88>
    8300680c:	00048513          	mv	a0,s1
    83006810:	ffffe097          	auipc	ra,0xffffe
    83006814:	67c080e7          	jalr	1660(ra) # 83004e8c <_free_r>
    83006818:	1f84b403          	ld	s0,504(s1)
    8300681c:	02040263          	beqz	s0,83006840 <_reclaim_reent+0xb0>
    83006820:	20048913          	addi	s2,s1,512
    83006824:	01240e63          	beq	s0,s2,83006840 <_reclaim_reent+0xb0>
    83006828:	00040593          	mv	a1,s0
    8300682c:	00043403          	ld	s0,0(s0)
    83006830:	00048513          	mv	a0,s1
    83006834:	ffffe097          	auipc	ra,0xffffe
    83006838:	658080e7          	jalr	1624(ra) # 83004e8c <_free_r>
    8300683c:	fe8916e3          	bne	s2,s0,83006828 <_reclaim_reent+0x98>
    83006840:	0884b583          	ld	a1,136(s1)
    83006844:	00058863          	beqz	a1,83006854 <_reclaim_reent+0xc4>
    83006848:	00048513          	mv	a0,s1
    8300684c:	ffffe097          	auipc	ra,0xffffe
    83006850:	640080e7          	jalr	1600(ra) # 83004e8c <_free_r>
    83006854:	0504a783          	lw	a5,80(s1)
    83006858:	04078a63          	beqz	a5,830068ac <_reclaim_reent+0x11c>
    8300685c:	0584b783          	ld	a5,88(s1)
    83006860:	00048513          	mv	a0,s1
    83006864:	000780e7          	jalr	a5
    83006868:	5204b403          	ld	s0,1312(s1)
    8300686c:	04040063          	beqz	s0,830068ac <_reclaim_reent+0x11c>
    83006870:	00043583          	ld	a1,0(s0)
    83006874:	00058863          	beqz	a1,83006884 <_reclaim_reent+0xf4>
    83006878:	00048513          	mv	a0,s1
    8300687c:	00000097          	auipc	ra,0x0
    83006880:	e6c080e7          	jalr	-404(ra) # 830066e8 <cleanup_glue>
    83006884:	00040593          	mv	a1,s0
    83006888:	02013403          	ld	s0,32(sp)
    8300688c:	02813083          	ld	ra,40(sp)
    83006890:	01013903          	ld	s2,16(sp)
    83006894:	00813983          	ld	s3,8(sp)
    83006898:	00048513          	mv	a0,s1
    8300689c:	01813483          	ld	s1,24(sp)
    830068a0:	03010113          	addi	sp,sp,48
    830068a4:	ffffe317          	auipc	t1,0xffffe
    830068a8:	5e830067          	jr	1512(t1) # 83004e8c <_free_r>
    830068ac:	02813083          	ld	ra,40(sp)
    830068b0:	02013403          	ld	s0,32(sp)
    830068b4:	01813483          	ld	s1,24(sp)
    830068b8:	01013903          	ld	s2,16(sp)
    830068bc:	00813983          	ld	s3,8(sp)
    830068c0:	03010113          	addi	sp,sp,48
    830068c4:	00008067          	ret
    830068c8:	00008067          	ret

00000000830068cc <_close_r>:
    830068cc:	ff010113          	addi	sp,sp,-16
    830068d0:	00813023          	sd	s0,0(sp)
    830068d4:	00050413          	mv	s0,a0
    830068d8:	00058513          	mv	a0,a1
    830068dc:	00004797          	auipc	a5,0x4
    830068e0:	da07a223          	sw	zero,-604(a5) # 8300a680 <errno>
    830068e4:	00113423          	sd	ra,8(sp)
    830068e8:	00001097          	auipc	ra,0x1
    830068ec:	87c080e7          	jalr	-1924(ra) # 83007164 <_close>
    830068f0:	fff00793          	li	a5,-1
    830068f4:	00f50a63          	beq	a0,a5,83006908 <_close_r+0x3c>
    830068f8:	00813083          	ld	ra,8(sp)
    830068fc:	00013403          	ld	s0,0(sp)
    83006900:	01010113          	addi	sp,sp,16
    83006904:	00008067          	ret
    83006908:	00004797          	auipc	a5,0x4
    8300690c:	d787a783          	lw	a5,-648(a5) # 8300a680 <errno>
    83006910:	fe0784e3          	beqz	a5,830068f8 <_close_r+0x2c>
    83006914:	00813083          	ld	ra,8(sp)
    83006918:	00f42023          	sw	a5,0(s0)
    8300691c:	00013403          	ld	s0,0(sp)
    83006920:	01010113          	addi	sp,sp,16
    83006924:	00008067          	ret

0000000083006928 <_isatty_r>:
    83006928:	ff010113          	addi	sp,sp,-16
    8300692c:	00813023          	sd	s0,0(sp)
    83006930:	00050413          	mv	s0,a0
    83006934:	00058513          	mv	a0,a1
    83006938:	00004797          	auipc	a5,0x4
    8300693c:	d407a423          	sw	zero,-696(a5) # 8300a680 <errno>
    83006940:	00113423          	sd	ra,8(sp)
    83006944:	00000097          	auipc	ra,0x0
    83006948:	5cc080e7          	jalr	1484(ra) # 83006f10 <_isatty>
    8300694c:	fff00793          	li	a5,-1
    83006950:	00f50a63          	beq	a0,a5,83006964 <_isatty_r+0x3c>
    83006954:	00813083          	ld	ra,8(sp)
    83006958:	00013403          	ld	s0,0(sp)
    8300695c:	01010113          	addi	sp,sp,16
    83006960:	00008067          	ret
    83006964:	00004797          	auipc	a5,0x4
    83006968:	d1c7a783          	lw	a5,-740(a5) # 8300a680 <errno>
    8300696c:	fe0784e3          	beqz	a5,83006954 <_isatty_r+0x2c>
    83006970:	00813083          	ld	ra,8(sp)
    83006974:	00f42023          	sw	a5,0(s0)
    83006978:	00013403          	ld	s0,0(sp)
    8300697c:	01010113          	addi	sp,sp,16
    83006980:	00008067          	ret

0000000083006984 <_realloc_r>:
    83006984:	fb010113          	addi	sp,sp,-80
    83006988:	03213823          	sd	s2,48(sp)
    8300698c:	04113423          	sd	ra,72(sp)
    83006990:	04813023          	sd	s0,64(sp)
    83006994:	02913c23          	sd	s1,56(sp)
    83006998:	03313423          	sd	s3,40(sp)
    8300699c:	03413023          	sd	s4,32(sp)
    830069a0:	01513c23          	sd	s5,24(sp)
    830069a4:	01613823          	sd	s6,16(sp)
    830069a8:	01713423          	sd	s7,8(sp)
    830069ac:	01813023          	sd	s8,0(sp)
    830069b0:	00060913          	mv	s2,a2
    830069b4:	1e058063          	beqz	a1,83006b94 <_realloc_r+0x210>
    830069b8:	00058413          	mv	s0,a1
    830069bc:	00050a13          	mv	s4,a0
    830069c0:	ffffe097          	auipc	ra,0xffffe
    830069c4:	36c080e7          	jalr	876(ra) # 83004d2c <__malloc_lock>
    830069c8:	ff843783          	ld	a5,-8(s0)
    830069cc:	01790493          	addi	s1,s2,23
    830069d0:	02e00713          	li	a4,46
    830069d4:	ff040a93          	addi	s5,s0,-16
    830069d8:	ffc7f993          	andi	s3,a5,-4
    830069dc:	10977063          	bgeu	a4,s1,83006adc <_realloc_r+0x158>
    830069e0:	80000737          	lui	a4,0x80000
    830069e4:	ff04f493          	andi	s1,s1,-16
    830069e8:	fff74713          	not	a4,a4
    830069ec:	0e976c63          	bltu	a4,s1,83006ae4 <_realloc_r+0x160>
    830069f0:	0f24ea63          	bltu	s1,s2,83006ae4 <_realloc_r+0x160>
    830069f4:	1499d263          	bge	s3,s1,83006b38 <_realloc_r+0x1b4>
    830069f8:	00003c17          	auipc	s8,0x3
    830069fc:	3c8c0c13          	addi	s8,s8,968 # 83009dc0 <__malloc_av_>
    83006a00:	010c3603          	ld	a2,16(s8)
    83006a04:	013a86b3          	add	a3,s5,s3
    83006a08:	0086b703          	ld	a4,8(a3)
    83006a0c:	1ed60a63          	beq	a2,a3,83006c00 <_realloc_r+0x27c>
    83006a10:	ffe77613          	andi	a2,a4,-2
    83006a14:	00c68633          	add	a2,a3,a2
    83006a18:	00863603          	ld	a2,8(a2)
    83006a1c:	00167613          	andi	a2,a2,1
    83006a20:	14061c63          	bnez	a2,83006b78 <_realloc_r+0x1f4>
    83006a24:	ffc77713          	andi	a4,a4,-4
    83006a28:	00e98633          	add	a2,s3,a4
    83006a2c:	0e965c63          	bge	a2,s1,83006b24 <_realloc_r+0x1a0>
    83006a30:	0017f793          	andi	a5,a5,1
    83006a34:	02079463          	bnez	a5,83006a5c <_realloc_r+0xd8>
    83006a38:	ff043b83          	ld	s7,-16(s0)
    83006a3c:	417a8bb3          	sub	s7,s5,s7
    83006a40:	008bb783          	ld	a5,8(s7)
    83006a44:	ffc7f793          	andi	a5,a5,-4
    83006a48:	00e78733          	add	a4,a5,a4
    83006a4c:	01370b33          	add	s6,a4,s3
    83006a50:	389b5063          	bge	s6,s1,83006dd0 <_realloc_r+0x44c>
    83006a54:	00f98b33          	add	s6,s3,a5
    83006a58:	2e9b5063          	bge	s6,s1,83006d38 <_realloc_r+0x3b4>
    83006a5c:	00090593          	mv	a1,s2
    83006a60:	000a0513          	mv	a0,s4
    83006a64:	ffffe097          	auipc	ra,0xffffe
    83006a68:	9bc080e7          	jalr	-1604(ra) # 83004420 <_malloc_r>
    83006a6c:	00050913          	mv	s2,a0
    83006a70:	04050e63          	beqz	a0,83006acc <_realloc_r+0x148>
    83006a74:	ff843783          	ld	a5,-8(s0)
    83006a78:	ff050713          	addi	a4,a0,-16
    83006a7c:	ffe7f793          	andi	a5,a5,-2
    83006a80:	00fa87b3          	add	a5,s5,a5
    83006a84:	2ae78263          	beq	a5,a4,83006d28 <_realloc_r+0x3a4>
    83006a88:	ff898613          	addi	a2,s3,-8
    83006a8c:	04800793          	li	a5,72
    83006a90:	32c7e863          	bltu	a5,a2,83006dc0 <_realloc_r+0x43c>
    83006a94:	02700713          	li	a4,39
    83006a98:	22c76a63          	bltu	a4,a2,83006ccc <_realloc_r+0x348>
    83006a9c:	00050793          	mv	a5,a0
    83006aa0:	00040713          	mv	a4,s0
    83006aa4:	00073683          	ld	a3,0(a4) # ffffffff80000000 <__BSS_END__+0xfffffffefcff5380>
    83006aa8:	00d7b023          	sd	a3,0(a5)
    83006aac:	00873683          	ld	a3,8(a4)
    83006ab0:	00d7b423          	sd	a3,8(a5)
    83006ab4:	01073703          	ld	a4,16(a4)
    83006ab8:	00e7b823          	sd	a4,16(a5)
    83006abc:	00040593          	mv	a1,s0
    83006ac0:	000a0513          	mv	a0,s4
    83006ac4:	ffffe097          	auipc	ra,0xffffe
    83006ac8:	3c8080e7          	jalr	968(ra) # 83004e8c <_free_r>
    83006acc:	000a0513          	mv	a0,s4
    83006ad0:	ffffe097          	auipc	ra,0xffffe
    83006ad4:	260080e7          	jalr	608(ra) # 83004d30 <__malloc_unlock>
    83006ad8:	0180006f          	j	83006af0 <_realloc_r+0x16c>
    83006adc:	02000493          	li	s1,32
    83006ae0:	f124fae3          	bgeu	s1,s2,830069f4 <_realloc_r+0x70>
    83006ae4:	00c00793          	li	a5,12
    83006ae8:	00fa2023          	sw	a5,0(s4)
    83006aec:	00000913          	li	s2,0
    83006af0:	04813083          	ld	ra,72(sp)
    83006af4:	04013403          	ld	s0,64(sp)
    83006af8:	03813483          	ld	s1,56(sp)
    83006afc:	02813983          	ld	s3,40(sp)
    83006b00:	02013a03          	ld	s4,32(sp)
    83006b04:	01813a83          	ld	s5,24(sp)
    83006b08:	01013b03          	ld	s6,16(sp)
    83006b0c:	00813b83          	ld	s7,8(sp)
    83006b10:	00013c03          	ld	s8,0(sp)
    83006b14:	00090513          	mv	a0,s2
    83006b18:	03013903          	ld	s2,48(sp)
    83006b1c:	05010113          	addi	sp,sp,80
    83006b20:	00008067          	ret
    83006b24:	0186b783          	ld	a5,24(a3)
    83006b28:	0106b703          	ld	a4,16(a3)
    83006b2c:	00060993          	mv	s3,a2
    83006b30:	00f73c23          	sd	a5,24(a4)
    83006b34:	00e7b823          	sd	a4,16(a5)
    83006b38:	008ab783          	ld	a5,8(s5)
    83006b3c:	409986b3          	sub	a3,s3,s1
    83006b40:	01f00613          	li	a2,31
    83006b44:	0017f793          	andi	a5,a5,1
    83006b48:	013a8733          	add	a4,s5,s3
    83006b4c:	08d66063          	bltu	a2,a3,83006bcc <_realloc_r+0x248>
    83006b50:	00f9e7b3          	or	a5,s3,a5
    83006b54:	00fab423          	sd	a5,8(s5)
    83006b58:	00873783          	ld	a5,8(a4)
    83006b5c:	0017e793          	ori	a5,a5,1
    83006b60:	00f73423          	sd	a5,8(a4)
    83006b64:	000a0513          	mv	a0,s4
    83006b68:	ffffe097          	auipc	ra,0xffffe
    83006b6c:	1c8080e7          	jalr	456(ra) # 83004d30 <__malloc_unlock>
    83006b70:	00040913          	mv	s2,s0
    83006b74:	f7dff06f          	j	83006af0 <_realloc_r+0x16c>
    83006b78:	0017f793          	andi	a5,a5,1
    83006b7c:	ee0790e3          	bnez	a5,83006a5c <_realloc_r+0xd8>
    83006b80:	ff043b83          	ld	s7,-16(s0)
    83006b84:	417a8bb3          	sub	s7,s5,s7
    83006b88:	008bb783          	ld	a5,8(s7)
    83006b8c:	ffc7f793          	andi	a5,a5,-4
    83006b90:	ec5ff06f          	j	83006a54 <_realloc_r+0xd0>
    83006b94:	04013403          	ld	s0,64(sp)
    83006b98:	04813083          	ld	ra,72(sp)
    83006b9c:	03813483          	ld	s1,56(sp)
    83006ba0:	03013903          	ld	s2,48(sp)
    83006ba4:	02813983          	ld	s3,40(sp)
    83006ba8:	02013a03          	ld	s4,32(sp)
    83006bac:	01813a83          	ld	s5,24(sp)
    83006bb0:	01013b03          	ld	s6,16(sp)
    83006bb4:	00813b83          	ld	s7,8(sp)
    83006bb8:	00013c03          	ld	s8,0(sp)
    83006bbc:	00060593          	mv	a1,a2
    83006bc0:	05010113          	addi	sp,sp,80
    83006bc4:	ffffe317          	auipc	t1,0xffffe
    83006bc8:	85c30067          	jr	-1956(t1) # 83004420 <_malloc_r>
    83006bcc:	00f4e7b3          	or	a5,s1,a5
    83006bd0:	00fab423          	sd	a5,8(s5)
    83006bd4:	009a85b3          	add	a1,s5,s1
    83006bd8:	0016e693          	ori	a3,a3,1
    83006bdc:	00d5b423          	sd	a3,8(a1)
    83006be0:	00873783          	ld	a5,8(a4)
    83006be4:	01058593          	addi	a1,a1,16
    83006be8:	000a0513          	mv	a0,s4
    83006bec:	0017e793          	ori	a5,a5,1
    83006bf0:	00f73423          	sd	a5,8(a4)
    83006bf4:	ffffe097          	auipc	ra,0xffffe
    83006bf8:	298080e7          	jalr	664(ra) # 83004e8c <_free_r>
    83006bfc:	f69ff06f          	j	83006b64 <_realloc_r+0x1e0>
    83006c00:	ffc77713          	andi	a4,a4,-4
    83006c04:	00e986b3          	add	a3,s3,a4
    83006c08:	02048613          	addi	a2,s1,32
    83006c0c:	0ec6d263          	bge	a3,a2,83006cf0 <_realloc_r+0x36c>
    83006c10:	0017f793          	andi	a5,a5,1
    83006c14:	e40794e3          	bnez	a5,83006a5c <_realloc_r+0xd8>
    83006c18:	ff043b83          	ld	s7,-16(s0)
    83006c1c:	417a8bb3          	sub	s7,s5,s7
    83006c20:	008bb783          	ld	a5,8(s7)
    83006c24:	ffc7f793          	andi	a5,a5,-4
    83006c28:	00e78733          	add	a4,a5,a4
    83006c2c:	01370b33          	add	s6,a4,s3
    83006c30:	e2cb42e3          	blt	s6,a2,83006a54 <_realloc_r+0xd0>
    83006c34:	018bb783          	ld	a5,24(s7)
    83006c38:	010bb703          	ld	a4,16(s7)
    83006c3c:	ff898613          	addi	a2,s3,-8
    83006c40:	04800693          	li	a3,72
    83006c44:	00f73c23          	sd	a5,24(a4)
    83006c48:	00e7b823          	sd	a4,16(a5)
    83006c4c:	010b8913          	addi	s2,s7,16
    83006c50:	26c6e863          	bltu	a3,a2,83006ec0 <_realloc_r+0x53c>
    83006c54:	02700713          	li	a4,39
    83006c58:	00090793          	mv	a5,s2
    83006c5c:	02c77263          	bgeu	a4,a2,83006c80 <_realloc_r+0x2fc>
    83006c60:	00043703          	ld	a4,0(s0)
    83006c64:	03700793          	li	a5,55
    83006c68:	00ebb823          	sd	a4,16(s7)
    83006c6c:	00843703          	ld	a4,8(s0)
    83006c70:	00ebbc23          	sd	a4,24(s7)
    83006c74:	26c7e063          	bltu	a5,a2,83006ed4 <_realloc_r+0x550>
    83006c78:	01040413          	addi	s0,s0,16
    83006c7c:	020b8793          	addi	a5,s7,32
    83006c80:	00043703          	ld	a4,0(s0)
    83006c84:	00e7b023          	sd	a4,0(a5)
    83006c88:	00843703          	ld	a4,8(s0)
    83006c8c:	00e7b423          	sd	a4,8(a5)
    83006c90:	01043703          	ld	a4,16(s0)
    83006c94:	00e7b823          	sd	a4,16(a5)
    83006c98:	009b8733          	add	a4,s7,s1
    83006c9c:	409b07b3          	sub	a5,s6,s1
    83006ca0:	00ec3823          	sd	a4,16(s8)
    83006ca4:	0017e793          	ori	a5,a5,1
    83006ca8:	00f73423          	sd	a5,8(a4)
    83006cac:	008bb783          	ld	a5,8(s7)
    83006cb0:	000a0513          	mv	a0,s4
    83006cb4:	0017f793          	andi	a5,a5,1
    83006cb8:	0097e7b3          	or	a5,a5,s1
    83006cbc:	00fbb423          	sd	a5,8(s7)
    83006cc0:	ffffe097          	auipc	ra,0xffffe
    83006cc4:	070080e7          	jalr	112(ra) # 83004d30 <__malloc_unlock>
    83006cc8:	e29ff06f          	j	83006af0 <_realloc_r+0x16c>
    83006ccc:	00043683          	ld	a3,0(s0)
    83006cd0:	03700713          	li	a4,55
    83006cd4:	00d53023          	sd	a3,0(a0)
    83006cd8:	00843683          	ld	a3,8(s0)
    83006cdc:	00d53423          	sd	a3,8(a0)
    83006ce0:	18c76c63          	bltu	a4,a2,83006e78 <_realloc_r+0x4f4>
    83006ce4:	01040713          	addi	a4,s0,16
    83006ce8:	01050793          	addi	a5,a0,16
    83006cec:	db9ff06f          	j	83006aa4 <_realloc_r+0x120>
    83006cf0:	009a8ab3          	add	s5,s5,s1
    83006cf4:	409687b3          	sub	a5,a3,s1
    83006cf8:	015c3823          	sd	s5,16(s8)
    83006cfc:	0017e793          	ori	a5,a5,1
    83006d00:	00fab423          	sd	a5,8(s5)
    83006d04:	ff843783          	ld	a5,-8(s0)
    83006d08:	000a0513          	mv	a0,s4
    83006d0c:	00040913          	mv	s2,s0
    83006d10:	0017f793          	andi	a5,a5,1
    83006d14:	0097e7b3          	or	a5,a5,s1
    83006d18:	fef43c23          	sd	a5,-8(s0)
    83006d1c:	ffffe097          	auipc	ra,0xffffe
    83006d20:	014080e7          	jalr	20(ra) # 83004d30 <__malloc_unlock>
    83006d24:	dcdff06f          	j	83006af0 <_realloc_r+0x16c>
    83006d28:	ff853783          	ld	a5,-8(a0)
    83006d2c:	ffc7f793          	andi	a5,a5,-4
    83006d30:	00f989b3          	add	s3,s3,a5
    83006d34:	e05ff06f          	j	83006b38 <_realloc_r+0x1b4>
    83006d38:	018bb783          	ld	a5,24(s7)
    83006d3c:	010bb703          	ld	a4,16(s7)
    83006d40:	ff898613          	addi	a2,s3,-8
    83006d44:	04800693          	li	a3,72
    83006d48:	00f73c23          	sd	a5,24(a4)
    83006d4c:	00e7b823          	sd	a4,16(a5)
    83006d50:	010b8913          	addi	s2,s7,16
    83006d54:	10c6e263          	bltu	a3,a2,83006e58 <_realloc_r+0x4d4>
    83006d58:	02700713          	li	a4,39
    83006d5c:	00090793          	mv	a5,s2
    83006d60:	02c77c63          	bgeu	a4,a2,83006d98 <_realloc_r+0x414>
    83006d64:	00043703          	ld	a4,0(s0)
    83006d68:	03700793          	li	a5,55
    83006d6c:	00ebb823          	sd	a4,16(s7)
    83006d70:	00843703          	ld	a4,8(s0)
    83006d74:	00ebbc23          	sd	a4,24(s7)
    83006d78:	12c7f063          	bgeu	a5,a2,83006e98 <_realloc_r+0x514>
    83006d7c:	01043783          	ld	a5,16(s0)
    83006d80:	02fbb023          	sd	a5,32(s7)
    83006d84:	01843783          	ld	a5,24(s0)
    83006d88:	02fbb423          	sd	a5,40(s7)
    83006d8c:	0ad60863          	beq	a2,a3,83006e3c <_realloc_r+0x4b8>
    83006d90:	02040413          	addi	s0,s0,32
    83006d94:	030b8793          	addi	a5,s7,48
    83006d98:	00043703          	ld	a4,0(s0)
    83006d9c:	000b0993          	mv	s3,s6
    83006da0:	000b8a93          	mv	s5,s7
    83006da4:	00e7b023          	sd	a4,0(a5)
    83006da8:	00843703          	ld	a4,8(s0)
    83006dac:	00e7b423          	sd	a4,8(a5)
    83006db0:	01043703          	ld	a4,16(s0)
    83006db4:	00090413          	mv	s0,s2
    83006db8:	00e7b823          	sd	a4,16(a5)
    83006dbc:	d7dff06f          	j	83006b38 <_realloc_r+0x1b4>
    83006dc0:	00040593          	mv	a1,s0
    83006dc4:	00000097          	auipc	ra,0x0
    83006dc8:	1bc080e7          	jalr	444(ra) # 83006f80 <memmove>
    83006dcc:	cf1ff06f          	j	83006abc <_realloc_r+0x138>
    83006dd0:	0186b783          	ld	a5,24(a3)
    83006dd4:	0106b703          	ld	a4,16(a3)
    83006dd8:	ff898613          	addi	a2,s3,-8
    83006ddc:	04800693          	li	a3,72
    83006de0:	00f73c23          	sd	a5,24(a4)
    83006de4:	00e7b823          	sd	a4,16(a5)
    83006de8:	010bb703          	ld	a4,16(s7)
    83006dec:	018bb783          	ld	a5,24(s7)
    83006df0:	010b8913          	addi	s2,s7,16
    83006df4:	00f73c23          	sd	a5,24(a4)
    83006df8:	00e7b823          	sd	a4,16(a5)
    83006dfc:	04c6ee63          	bltu	a3,a2,83006e58 <_realloc_r+0x4d4>
    83006e00:	02700713          	li	a4,39
    83006e04:	00090793          	mv	a5,s2
    83006e08:	f8c778e3          	bgeu	a4,a2,83006d98 <_realloc_r+0x414>
    83006e0c:	00043703          	ld	a4,0(s0)
    83006e10:	03700793          	li	a5,55
    83006e14:	00ebb823          	sd	a4,16(s7)
    83006e18:	00843703          	ld	a4,8(s0)
    83006e1c:	00ebbc23          	sd	a4,24(s7)
    83006e20:	06c7fc63          	bgeu	a5,a2,83006e98 <_realloc_r+0x514>
    83006e24:	01043703          	ld	a4,16(s0)
    83006e28:	04800793          	li	a5,72
    83006e2c:	02ebb023          	sd	a4,32(s7)
    83006e30:	01843703          	ld	a4,24(s0)
    83006e34:	02ebb423          	sd	a4,40(s7)
    83006e38:	f4f61ce3          	bne	a2,a5,83006d90 <_realloc_r+0x40c>
    83006e3c:	02043703          	ld	a4,32(s0)
    83006e40:	040b8793          	addi	a5,s7,64
    83006e44:	03040413          	addi	s0,s0,48
    83006e48:	02ebb823          	sd	a4,48(s7)
    83006e4c:	ff843703          	ld	a4,-8(s0)
    83006e50:	02ebbc23          	sd	a4,56(s7)
    83006e54:	f45ff06f          	j	83006d98 <_realloc_r+0x414>
    83006e58:	00040593          	mv	a1,s0
    83006e5c:	00090513          	mv	a0,s2
    83006e60:	00000097          	auipc	ra,0x0
    83006e64:	120080e7          	jalr	288(ra) # 83006f80 <memmove>
    83006e68:	00090413          	mv	s0,s2
    83006e6c:	000b0993          	mv	s3,s6
    83006e70:	000b8a93          	mv	s5,s7
    83006e74:	cc5ff06f          	j	83006b38 <_realloc_r+0x1b4>
    83006e78:	01043703          	ld	a4,16(s0)
    83006e7c:	00e53823          	sd	a4,16(a0)
    83006e80:	01843703          	ld	a4,24(s0)
    83006e84:	00e53c23          	sd	a4,24(a0)
    83006e88:	00f60e63          	beq	a2,a5,83006ea4 <_realloc_r+0x520>
    83006e8c:	02040713          	addi	a4,s0,32
    83006e90:	02050793          	addi	a5,a0,32
    83006e94:	c11ff06f          	j	83006aa4 <_realloc_r+0x120>
    83006e98:	01040413          	addi	s0,s0,16
    83006e9c:	020b8793          	addi	a5,s7,32
    83006ea0:	ef9ff06f          	j	83006d98 <_realloc_r+0x414>
    83006ea4:	02043683          	ld	a3,32(s0)
    83006ea8:	03040713          	addi	a4,s0,48
    83006eac:	03050793          	addi	a5,a0,48
    83006eb0:	02d53023          	sd	a3,32(a0)
    83006eb4:	02843683          	ld	a3,40(s0)
    83006eb8:	02d53423          	sd	a3,40(a0)
    83006ebc:	be9ff06f          	j	83006aa4 <_realloc_r+0x120>
    83006ec0:	00040593          	mv	a1,s0
    83006ec4:	00090513          	mv	a0,s2
    83006ec8:	00000097          	auipc	ra,0x0
    83006ecc:	0b8080e7          	jalr	184(ra) # 83006f80 <memmove>
    83006ed0:	dc9ff06f          	j	83006c98 <_realloc_r+0x314>
    83006ed4:	01043783          	ld	a5,16(s0)
    83006ed8:	02fbb023          	sd	a5,32(s7)
    83006edc:	01843783          	ld	a5,24(s0)
    83006ee0:	02fbb423          	sd	a5,40(s7)
    83006ee4:	00d60863          	beq	a2,a3,83006ef4 <_realloc_r+0x570>
    83006ee8:	02040413          	addi	s0,s0,32
    83006eec:	030b8793          	addi	a5,s7,48
    83006ef0:	d91ff06f          	j	83006c80 <_realloc_r+0x2fc>
    83006ef4:	02043703          	ld	a4,32(s0)
    83006ef8:	040b8793          	addi	a5,s7,64
    83006efc:	03040413          	addi	s0,s0,48
    83006f00:	02ebb823          	sd	a4,48(s7)
    83006f04:	ff843703          	ld	a4,-8(s0)
    83006f08:	02ebbc23          	sd	a4,56(s7)
    83006f0c:	d75ff06f          	j	83006c80 <_realloc_r+0x2fc>

0000000083006f10 <_isatty>:
    83006f10:	f8010113          	addi	sp,sp,-128
    83006f14:	00810593          	addi	a1,sp,8
    83006f18:	06113c23          	sd	ra,120(sp)
    83006f1c:	00000097          	auipc	ra,0x0
    83006f20:	190080e7          	jalr	400(ra) # 830070ac <fstat>
    83006f24:	02054e63          	bltz	a0,83006f60 <_isatty+0x50>
    83006f28:	00c12783          	lw	a5,12(sp)
    83006f2c:	0000f6b7          	lui	a3,0xf
    83006f30:	00002737          	lui	a4,0x2
    83006f34:	00d7f7b3          	and	a5,a5,a3
    83006f38:	00100513          	li	a0,1
    83006f3c:	00e78c63          	beq	a5,a4,83006f54 <_isatty+0x44>
    83006f40:	00000097          	auipc	ra,0x0
    83006f44:	160080e7          	jalr	352(ra) # 830070a0 <__errno>
    83006f48:	01900793          	li	a5,25
    83006f4c:	00f52023          	sw	a5,0(a0)
    83006f50:	00000513          	li	a0,0
    83006f54:	07813083          	ld	ra,120(sp)
    83006f58:	08010113          	addi	sp,sp,128
    83006f5c:	00008067          	ret
    83006f60:	00000097          	auipc	ra,0x0
    83006f64:	140080e7          	jalr	320(ra) # 830070a0 <__errno>
    83006f68:	07813083          	ld	ra,120(sp)
    83006f6c:	00900793          	li	a5,9
    83006f70:	00f52023          	sw	a5,0(a0)
    83006f74:	00000513          	li	a0,0
    83006f78:	08010113          	addi	sp,sp,128
    83006f7c:	00008067          	ret

0000000083006f80 <memmove>:
    83006f80:	02a5f663          	bgeu	a1,a0,83006fac <memmove+0x2c>
    83006f84:	00c587b3          	add	a5,a1,a2
    83006f88:	02f57263          	bgeu	a0,a5,83006fac <memmove+0x2c>
    83006f8c:	00c50733          	add	a4,a0,a2
    83006f90:	0e060a63          	beqz	a2,83007084 <memmove+0x104>
    83006f94:	fff7c683          	lbu	a3,-1(a5)
    83006f98:	fff78793          	addi	a5,a5,-1
    83006f9c:	fff70713          	addi	a4,a4,-1 # 1fff <main-0x82ffe121>
    83006fa0:	00d70023          	sb	a3,0(a4)
    83006fa4:	fef598e3          	bne	a1,a5,83006f94 <memmove+0x14>
    83006fa8:	00008067          	ret
    83006fac:	01f00793          	li	a5,31
    83006fb0:	02c7e863          	bltu	a5,a2,83006fe0 <memmove+0x60>
    83006fb4:	00050793          	mv	a5,a0
    83006fb8:	fff60693          	addi	a3,a2,-1
    83006fbc:	0c060c63          	beqz	a2,83007094 <memmove+0x114>
    83006fc0:	00168693          	addi	a3,a3,1 # f001 <main-0x82ff111f>
    83006fc4:	00d786b3          	add	a3,a5,a3
    83006fc8:	0005c703          	lbu	a4,0(a1)
    83006fcc:	00178793          	addi	a5,a5,1
    83006fd0:	00158593          	addi	a1,a1,1
    83006fd4:	fee78fa3          	sb	a4,-1(a5)
    83006fd8:	fed798e3          	bne	a5,a3,83006fc8 <memmove+0x48>
    83006fdc:	00008067          	ret
    83006fe0:	00b567b3          	or	a5,a0,a1
    83006fe4:	0077f793          	andi	a5,a5,7
    83006fe8:	0a079063          	bnez	a5,83007088 <memmove+0x108>
    83006fec:	fe060893          	addi	a7,a2,-32
    83006ff0:	fe08f893          	andi	a7,a7,-32
    83006ff4:	02088893          	addi	a7,a7,32
    83006ff8:	01150833          	add	a6,a0,a7
    83006ffc:	00058713          	mv	a4,a1
    83007000:	00050793          	mv	a5,a0
    83007004:	00073683          	ld	a3,0(a4)
    83007008:	02070713          	addi	a4,a4,32
    8300700c:	02078793          	addi	a5,a5,32
    83007010:	fed7b023          	sd	a3,-32(a5)
    83007014:	fe873683          	ld	a3,-24(a4)
    83007018:	fed7b423          	sd	a3,-24(a5)
    8300701c:	ff073683          	ld	a3,-16(a4)
    83007020:	fed7b823          	sd	a3,-16(a5)
    83007024:	ff873683          	ld	a3,-8(a4)
    83007028:	fed7bc23          	sd	a3,-8(a5)
    8300702c:	fcf81ce3          	bne	a6,a5,83007004 <memmove+0x84>
    83007030:	01867713          	andi	a4,a2,24
    83007034:	011585b3          	add	a1,a1,a7
    83007038:	01f67813          	andi	a6,a2,31
    8300703c:	04070e63          	beqz	a4,83007098 <memmove+0x118>
    83007040:	00058713          	mv	a4,a1
    83007044:	00078893          	mv	a7,a5
    83007048:	00700e13          	li	t3,7
    8300704c:	00073303          	ld	t1,0(a4)
    83007050:	00870713          	addi	a4,a4,8
    83007054:	40e806b3          	sub	a3,a6,a4
    83007058:	0068b023          	sd	t1,0(a7)
    8300705c:	00d586b3          	add	a3,a1,a3
    83007060:	00888893          	addi	a7,a7,8
    83007064:	fede64e3          	bltu	t3,a3,8300704c <memmove+0xcc>
    83007068:	ff880713          	addi	a4,a6,-8
    8300706c:	ff877713          	andi	a4,a4,-8
    83007070:	00870713          	addi	a4,a4,8
    83007074:	00767613          	andi	a2,a2,7
    83007078:	00e787b3          	add	a5,a5,a4
    8300707c:	00e585b3          	add	a1,a1,a4
    83007080:	f39ff06f          	j	83006fb8 <memmove+0x38>
    83007084:	00008067          	ret
    83007088:	fff60693          	addi	a3,a2,-1
    8300708c:	00050793          	mv	a5,a0
    83007090:	f31ff06f          	j	83006fc0 <memmove+0x40>
    83007094:	00008067          	ret
    83007098:	00080613          	mv	a2,a6
    8300709c:	f1dff06f          	j	83006fb8 <memmove+0x38>

00000000830070a0 <__errno>:
    830070a0:	00003517          	auipc	a0,0x3
    830070a4:	5a053503          	ld	a0,1440(a0) # 8300a640 <_impure_ptr>
    830070a8:	00008067          	ret

00000000830070ac <fstat>:
    830070ac:	00058613          	mv	a2,a1
    830070b0:	00050593          	mv	a1,a0
    830070b4:	00003517          	auipc	a0,0x3
    830070b8:	58c53503          	ld	a0,1420(a0) # 8300a640 <_impure_ptr>
    830070bc:	fffff317          	auipc	t1,0xfffff
    830070c0:	56c30067          	jr	1388(t1) # 83006628 <_fstat_r>

00000000830070c4 <_syscall_>:
    830070c4:	00050893          	mv	a7,a0
    830070c8:	00058513          	mv	a0,a1
    830070cc:	00060593          	mv	a1,a2
    830070d0:	00068613          	mv	a2,a3
    830070d4:	00000073          	ecall
    830070d8:	00008067          	ret

00000000830070dc <_exit>:
    830070dc:	00000893          	li	a7,0
    830070e0:	00000593          	li	a1,0
    830070e4:	00000613          	li	a2,0
    830070e8:	00000073          	ecall
    830070ec:	0000006f          	j	830070ec <_exit+0x10>

00000000830070f0 <_open>:
    830070f0:	02061613          	slli	a2,a2,0x20
    830070f4:	00200893          	li	a7,2
    830070f8:	02065613          	srli	a2,a2,0x20
    830070fc:	00000073          	ecall
    83007100:	0005051b          	sext.w	a0,a0
    83007104:	00008067          	ret

0000000083007108 <_write>:
    83007108:	00400893          	li	a7,4
    8300710c:	00000073          	ecall
    83007110:	0005051b          	sext.w	a0,a0
    83007114:	00008067          	ret

0000000083007118 <_sbrk>:
    83007118:	00003697          	auipc	a3,0x3
    8300711c:	54068693          	addi	a3,a3,1344 # 8300a658 <prog_brk.12>
    83007120:	0006b783          	ld	a5,0(a3)
    83007124:	00900893          	li	a7,9
    83007128:	00000593          	li	a1,0
    8300712c:	00a78733          	add	a4,a5,a0
    83007130:	00070513          	mv	a0,a4
    83007134:	00000613          	li	a2,0
    83007138:	00000073          	ecall
    8300713c:	00051863          	bnez	a0,8300714c <_sbrk+0x34>
    83007140:	00e6b023          	sd	a4,0(a3)
    83007144:	00078513          	mv	a0,a5
    83007148:	00008067          	ret
    8300714c:	fff00513          	li	a0,-1
    83007150:	00008067          	ret

0000000083007154 <_read>:
    83007154:	00300893          	li	a7,3
    83007158:	00000073          	ecall
    8300715c:	0005051b          	sext.w	a0,a0
    83007160:	00008067          	ret

0000000083007164 <_close>:
    83007164:	00700893          	li	a7,7
    83007168:	00000593          	li	a1,0
    8300716c:	00000613          	li	a2,0
    83007170:	00000073          	ecall
    83007174:	0005051b          	sext.w	a0,a0
    83007178:	00008067          	ret

000000008300717c <_lseek>:
    8300717c:	00800893          	li	a7,8
    83007180:	00000073          	ecall
    83007184:	00008067          	ret

0000000083007188 <_gettimeofday>:
    83007188:	01300893          	li	a7,19
    8300718c:	00000613          	li	a2,0
    83007190:	00000073          	ecall
    83007194:	0005051b          	sext.w	a0,a0
    83007198:	00008067          	ret

000000008300719c <_execve>:
    8300719c:	00d00893          	li	a7,13
    830071a0:	00000073          	ecall
    830071a4:	0005051b          	sext.w	a0,a0
    830071a8:	00008067          	ret

00000000830071ac <_fstat>:
    830071ac:	fff00513          	li	a0,-1
    830071b0:	00008067          	ret

00000000830071b4 <_stat>:
    830071b4:	ff010113          	addi	sp,sp,-16
    830071b8:	00001697          	auipc	a3,0x1
    830071bc:	3e868693          	addi	a3,a3,1000 # 830085a0 <zeroes.0+0x10>
    830071c0:	00003617          	auipc	a2,0x3
    830071c4:	47860613          	addi	a2,a2,1144 # 8300a638 <__func__.11>
    830071c8:	06e00593          	li	a1,110
    830071cc:	00001517          	auipc	a0,0x1
    830071d0:	3dc50513          	addi	a0,a0,988 # 830085a8 <zeroes.0+0x18>
    830071d4:	00113423          	sd	ra,8(sp)
    830071d8:	00000097          	auipc	ra,0x0
    830071dc:	3e0080e7          	jalr	992(ra) # 830075b8 <__assert_func>

00000000830071e0 <_kill>:
    830071e0:	ff010113          	addi	sp,sp,-16
    830071e4:	ffb00513          	li	a0,-5
    830071e8:	00113423          	sd	ra,8(sp)
    830071ec:	00000097          	auipc	ra,0x0
    830071f0:	ef0080e7          	jalr	-272(ra) # 830070dc <_exit>

00000000830071f4 <_getpid>:
    830071f4:	ff010113          	addi	sp,sp,-16
    830071f8:	ffa00513          	li	a0,-6
    830071fc:	00113423          	sd	ra,8(sp)
    83007200:	00000097          	auipc	ra,0x0
    83007204:	edc080e7          	jalr	-292(ra) # 830070dc <_exit>

0000000083007208 <_fork>:
    83007208:	ff010113          	addi	sp,sp,-16
    8300720c:	00001697          	auipc	a3,0x1
    83007210:	39468693          	addi	a3,a3,916 # 830085a0 <zeroes.0+0x10>
    83007214:	00003617          	auipc	a2,0x3
    83007218:	41c60613          	addi	a2,a2,1052 # 8300a630 <__func__.10>
    8300721c:	07d00593          	li	a1,125
    83007220:	00001517          	auipc	a0,0x1
    83007224:	38850513          	addi	a0,a0,904 # 830085a8 <zeroes.0+0x18>
    83007228:	00113423          	sd	ra,8(sp)
    8300722c:	00000097          	auipc	ra,0x0
    83007230:	38c080e7          	jalr	908(ra) # 830075b8 <__assert_func>

0000000083007234 <vfork>:
    83007234:	ff010113          	addi	sp,sp,-16
    83007238:	00001697          	auipc	a3,0x1
    8300723c:	36868693          	addi	a3,a3,872 # 830085a0 <zeroes.0+0x10>
    83007240:	00003617          	auipc	a2,0x3
    83007244:	3e860613          	addi	a2,a2,1000 # 8300a628 <__func__.9>
    83007248:	08200593          	li	a1,130
    8300724c:	00001517          	auipc	a0,0x1
    83007250:	35c50513          	addi	a0,a0,860 # 830085a8 <zeroes.0+0x18>
    83007254:	00113423          	sd	ra,8(sp)
    83007258:	00000097          	auipc	ra,0x0
    8300725c:	360080e7          	jalr	864(ra) # 830075b8 <__assert_func>

0000000083007260 <_link>:
    83007260:	ff010113          	addi	sp,sp,-16
    83007264:	00001697          	auipc	a3,0x1
    83007268:	33c68693          	addi	a3,a3,828 # 830085a0 <zeroes.0+0x10>
    8300726c:	00003617          	auipc	a2,0x3
    83007270:	3b460613          	addi	a2,a2,948 # 8300a620 <__func__.8>
    83007274:	08700593          	li	a1,135
    83007278:	00001517          	auipc	a0,0x1
    8300727c:	33050513          	addi	a0,a0,816 # 830085a8 <zeroes.0+0x18>
    83007280:	00113423          	sd	ra,8(sp)
    83007284:	00000097          	auipc	ra,0x0
    83007288:	334080e7          	jalr	820(ra) # 830075b8 <__assert_func>

000000008300728c <_unlink>:
    8300728c:	ff010113          	addi	sp,sp,-16
    83007290:	00001697          	auipc	a3,0x1
    83007294:	31068693          	addi	a3,a3,784 # 830085a0 <zeroes.0+0x10>
    83007298:	00003617          	auipc	a2,0x3
    8300729c:	38060613          	addi	a2,a2,896 # 8300a618 <__func__.7>
    830072a0:	08c00593          	li	a1,140
    830072a4:	00001517          	auipc	a0,0x1
    830072a8:	30450513          	addi	a0,a0,772 # 830085a8 <zeroes.0+0x18>
    830072ac:	00113423          	sd	ra,8(sp)
    830072b0:	00000097          	auipc	ra,0x0
    830072b4:	308080e7          	jalr	776(ra) # 830075b8 <__assert_func>

00000000830072b8 <_wait>:
    830072b8:	ff010113          	addi	sp,sp,-16
    830072bc:	00001697          	auipc	a3,0x1
    830072c0:	2e468693          	addi	a3,a3,740 # 830085a0 <zeroes.0+0x10>
    830072c4:	00003617          	auipc	a2,0x3
    830072c8:	34c60613          	addi	a2,a2,844 # 8300a610 <__func__.6>
    830072cc:	09100593          	li	a1,145
    830072d0:	00001517          	auipc	a0,0x1
    830072d4:	2d850513          	addi	a0,a0,728 # 830085a8 <zeroes.0+0x18>
    830072d8:	00113423          	sd	ra,8(sp)
    830072dc:	00000097          	auipc	ra,0x0
    830072e0:	2dc080e7          	jalr	732(ra) # 830075b8 <__assert_func>

00000000830072e4 <_times>:
    830072e4:	ff010113          	addi	sp,sp,-16
    830072e8:	00001697          	auipc	a3,0x1
    830072ec:	2b868693          	addi	a3,a3,696 # 830085a0 <zeroes.0+0x10>
    830072f0:	00003617          	auipc	a2,0x3
    830072f4:	31860613          	addi	a2,a2,792 # 8300a608 <__func__.5>
    830072f8:	09600593          	li	a1,150
    830072fc:	00001517          	auipc	a0,0x1
    83007300:	2ac50513          	addi	a0,a0,684 # 830085a8 <zeroes.0+0x18>
    83007304:	00113423          	sd	ra,8(sp)
    83007308:	00000097          	auipc	ra,0x0
    8300730c:	2b0080e7          	jalr	688(ra) # 830075b8 <__assert_func>

0000000083007310 <pipe>:
    83007310:	ff010113          	addi	sp,sp,-16
    83007314:	00001697          	auipc	a3,0x1
    83007318:	28c68693          	addi	a3,a3,652 # 830085a0 <zeroes.0+0x10>
    8300731c:	00003617          	auipc	a2,0x3
    83007320:	2e460613          	addi	a2,a2,740 # 8300a600 <__func__.4>
    83007324:	09b00593          	li	a1,155
    83007328:	00001517          	auipc	a0,0x1
    8300732c:	28050513          	addi	a0,a0,640 # 830085a8 <zeroes.0+0x18>
    83007330:	00113423          	sd	ra,8(sp)
    83007334:	00000097          	auipc	ra,0x0
    83007338:	284080e7          	jalr	644(ra) # 830075b8 <__assert_func>

000000008300733c <dup>:
    8300733c:	ff010113          	addi	sp,sp,-16
    83007340:	00001697          	auipc	a3,0x1
    83007344:	26068693          	addi	a3,a3,608 # 830085a0 <zeroes.0+0x10>
    83007348:	00003617          	auipc	a2,0x3
    8300734c:	2b060613          	addi	a2,a2,688 # 8300a5f8 <__func__.3>
    83007350:	0a000593          	li	a1,160
    83007354:	00001517          	auipc	a0,0x1
    83007358:	25450513          	addi	a0,a0,596 # 830085a8 <zeroes.0+0x18>
    8300735c:	00113423          	sd	ra,8(sp)
    83007360:	00000097          	auipc	ra,0x0
    83007364:	258080e7          	jalr	600(ra) # 830075b8 <__assert_func>

0000000083007368 <dup2>:
    83007368:	fff00513          	li	a0,-1
    8300736c:	00008067          	ret

0000000083007370 <sleep>:
    83007370:	ff010113          	addi	sp,sp,-16
    83007374:	00001697          	auipc	a3,0x1
    83007378:	22c68693          	addi	a3,a3,556 # 830085a0 <zeroes.0+0x10>
    8300737c:	00003617          	auipc	a2,0x3
    83007380:	27460613          	addi	a2,a2,628 # 8300a5f0 <__func__.2>
    83007384:	0a900593          	li	a1,169
    83007388:	00001517          	auipc	a0,0x1
    8300738c:	22050513          	addi	a0,a0,544 # 830085a8 <zeroes.0+0x18>
    83007390:	00113423          	sd	ra,8(sp)
    83007394:	00000097          	auipc	ra,0x0
    83007398:	224080e7          	jalr	548(ra) # 830075b8 <__assert_func>

000000008300739c <readlink>:
    8300739c:	ff010113          	addi	sp,sp,-16
    830073a0:	00001697          	auipc	a3,0x1
    830073a4:	20068693          	addi	a3,a3,512 # 830085a0 <zeroes.0+0x10>
    830073a8:	00001617          	auipc	a2,0x1
    830073ac:	24060613          	addi	a2,a2,576 # 830085e8 <__func__.1>
    830073b0:	0ae00593          	li	a1,174
    830073b4:	00001517          	auipc	a0,0x1
    830073b8:	1f450513          	addi	a0,a0,500 # 830085a8 <zeroes.0+0x18>
    830073bc:	00113423          	sd	ra,8(sp)
    830073c0:	00000097          	auipc	ra,0x0
    830073c4:	1f8080e7          	jalr	504(ra) # 830075b8 <__assert_func>

00000000830073c8 <symlink>:
    830073c8:	ff010113          	addi	sp,sp,-16
    830073cc:	00001697          	auipc	a3,0x1
    830073d0:	1d468693          	addi	a3,a3,468 # 830085a0 <zeroes.0+0x10>
    830073d4:	00003617          	auipc	a2,0x3
    830073d8:	21460613          	addi	a2,a2,532 # 8300a5e8 <__func__.0>
    830073dc:	0b300593          	li	a1,179
    830073e0:	00001517          	auipc	a0,0x1
    830073e4:	1c850513          	addi	a0,a0,456 # 830085a8 <zeroes.0+0x18>
    830073e8:	00113423          	sd	ra,8(sp)
    830073ec:	00000097          	auipc	ra,0x0
    830073f0:	1cc080e7          	jalr	460(ra) # 830075b8 <__assert_func>

00000000830073f4 <ioctl>:
    830073f4:	fd010113          	addi	sp,sp,-48
    830073f8:	00c13023          	sd	a2,0(sp)
    830073fc:	00d13423          	sd	a3,8(sp)
    83007400:	00e13823          	sd	a4,16(sp)
    83007404:	00f13c23          	sd	a5,24(sp)
    83007408:	03013023          	sd	a6,32(sp)
    8300740c:	03113423          	sd	a7,40(sp)
    83007410:	fff00513          	li	a0,-1
    83007414:	03010113          	addi	sp,sp,48
    83007418:	00008067          	ret

000000008300741c <_start>:
    8300741c:	00000413          	li	s0,0
    83007420:	004000ef          	jal	ra,83007424 <call_main>

0000000083007424 <call_main>:
    83007424:	fe010113          	addi	sp,sp,-32
    83007428:	00810793          	addi	a5,sp,8
    8300742c:	00078613          	mv	a2,a5
    83007430:	00078593          	mv	a1,a5
    83007434:	00000513          	li	a0,0
    83007438:	00113c23          	sd	ra,24(sp)
    8300743c:	00003717          	auipc	a4,0x3
    83007440:	22f73223          	sd	a5,548(a4) # 8300a660 <environ>
    83007444:	00013423          	sd	zero,8(sp)
    83007448:	ffff9097          	auipc	ra,0xffff9
    8300744c:	cd8080e7          	jalr	-808(ra) # 83000120 <main>
    83007450:	00000097          	auipc	ra,0x0
    83007454:	12c080e7          	jalr	300(ra) # 8300757c <exit>

0000000083007458 <__udivsi3>:
    83007458:	02051513          	slli	a0,a0,0x20
    8300745c:	02059593          	slli	a1,a1,0x20
    83007460:	00008293          	mv	t0,ra
    83007464:	03c000ef          	jal	ra,830074a0 <__udivdi3>
    83007468:	0005051b          	sext.w	a0,a0
    8300746c:	00028067          	jr	t0

0000000083007470 <__umodsi3>:
    83007470:	02051513          	slli	a0,a0,0x20
    83007474:	02059593          	slli	a1,a1,0x20
    83007478:	02055513          	srli	a0,a0,0x20
    8300747c:	0205d593          	srli	a1,a1,0x20
    83007480:	00008293          	mv	t0,ra
    83007484:	01c000ef          	jal	ra,830074a0 <__udivdi3>
    83007488:	0005851b          	sext.w	a0,a1
    8300748c:	00028067          	jr	t0

0000000083007490 <__divsi3>:
    83007490:	fff00293          	li	t0,-1
    83007494:	0a558c63          	beq	a1,t0,8300754c <__moddi3+0x30>

0000000083007498 <__divdi3>:
    83007498:	06054063          	bltz	a0,830074f8 <__umoddi3+0x10>
    8300749c:	0605c663          	bltz	a1,83007508 <__umoddi3+0x20>

00000000830074a0 <__udivdi3>:
    830074a0:	00058613          	mv	a2,a1
    830074a4:	00050593          	mv	a1,a0
    830074a8:	fff00513          	li	a0,-1
    830074ac:	02060c63          	beqz	a2,830074e4 <__udivdi3+0x44>
    830074b0:	00100693          	li	a3,1
    830074b4:	00b67a63          	bgeu	a2,a1,830074c8 <__udivdi3+0x28>
    830074b8:	00c05863          	blez	a2,830074c8 <__udivdi3+0x28>
    830074bc:	00161613          	slli	a2,a2,0x1
    830074c0:	00169693          	slli	a3,a3,0x1
    830074c4:	feb66ae3          	bltu	a2,a1,830074b8 <__udivdi3+0x18>
    830074c8:	00000513          	li	a0,0
    830074cc:	00c5e663          	bltu	a1,a2,830074d8 <__udivdi3+0x38>
    830074d0:	40c585b3          	sub	a1,a1,a2
    830074d4:	00d56533          	or	a0,a0,a3
    830074d8:	0016d693          	srli	a3,a3,0x1
    830074dc:	00165613          	srli	a2,a2,0x1
    830074e0:	fe0696e3          	bnez	a3,830074cc <__udivdi3+0x2c>
    830074e4:	00008067          	ret

00000000830074e8 <__umoddi3>:
    830074e8:	00008293          	mv	t0,ra
    830074ec:	fb5ff0ef          	jal	ra,830074a0 <__udivdi3>
    830074f0:	00058513          	mv	a0,a1
    830074f4:	00028067          	jr	t0
    830074f8:	40a00533          	neg	a0,a0
    830074fc:	00b04863          	bgtz	a1,8300750c <__umoddi3+0x24>
    83007500:	40b005b3          	neg	a1,a1
    83007504:	f9dff06f          	j	830074a0 <__udivdi3>
    83007508:	40b005b3          	neg	a1,a1
    8300750c:	00008293          	mv	t0,ra
    83007510:	f91ff0ef          	jal	ra,830074a0 <__udivdi3>
    83007514:	40a00533          	neg	a0,a0
    83007518:	00028067          	jr	t0

000000008300751c <__moddi3>:
    8300751c:	00008293          	mv	t0,ra
    83007520:	0005ca63          	bltz	a1,83007534 <__moddi3+0x18>
    83007524:	00054c63          	bltz	a0,8300753c <__moddi3+0x20>
    83007528:	f79ff0ef          	jal	ra,830074a0 <__udivdi3>
    8300752c:	00058513          	mv	a0,a1
    83007530:	00028067          	jr	t0
    83007534:	40b005b3          	neg	a1,a1
    83007538:	fe0558e3          	bgez	a0,83007528 <__moddi3+0xc>
    8300753c:	40a00533          	neg	a0,a0
    83007540:	f61ff0ef          	jal	ra,830074a0 <__udivdi3>
    83007544:	40b00533          	neg	a0,a1
    83007548:	00028067          	jr	t0
    8300754c:	01f29293          	slli	t0,t0,0x1f
    83007550:	f45514e3          	bne	a0,t0,83007498 <__divdi3>
    83007554:	00008067          	ret

0000000083007558 <__muldi3>:
    83007558:	00050613          	mv	a2,a0
    8300755c:	00000513          	li	a0,0
    83007560:	0015f693          	andi	a3,a1,1
    83007564:	00068463          	beqz	a3,8300756c <__muldi3+0x14>
    83007568:	00c50533          	add	a0,a0,a2
    8300756c:	0015d593          	srli	a1,a1,0x1
    83007570:	00161613          	slli	a2,a2,0x1
    83007574:	fe0596e3          	bnez	a1,83007560 <__muldi3+0x8>
    83007578:	00008067          	ret

000000008300757c <exit>:
    8300757c:	ff010113          	addi	sp,sp,-16
    83007580:	00000593          	li	a1,0
    83007584:	00813023          	sd	s0,0(sp)
    83007588:	00113423          	sd	ra,8(sp)
    8300758c:	00050413          	mv	s0,a0
    83007590:	00000097          	auipc	ra,0x0
    83007594:	14c080e7          	jalr	332(ra) # 830076dc <__call_exitprocs>
    83007598:	00003517          	auipc	a0,0x3
    8300759c:	04853503          	ld	a0,72(a0) # 8300a5e0 <_global_impure_ptr>
    830075a0:	05853783          	ld	a5,88(a0)
    830075a4:	00078463          	beqz	a5,830075ac <exit+0x30>
    830075a8:	000780e7          	jalr	a5
    830075ac:	00040513          	mv	a0,s0
    830075b0:	00000097          	auipc	ra,0x0
    830075b4:	b2c080e7          	jalr	-1236(ra) # 830070dc <_exit>

00000000830075b8 <__assert_func>:
    830075b8:	ff010113          	addi	sp,sp,-16
    830075bc:	00068793          	mv	a5,a3
    830075c0:	00003717          	auipc	a4,0x3
    830075c4:	08073703          	ld	a4,128(a4) # 8300a640 <_impure_ptr>
    830075c8:	00060813          	mv	a6,a2
    830075cc:	00113423          	sd	ra,8(sp)
    830075d0:	01873883          	ld	a7,24(a4)
    830075d4:	00078613          	mv	a2,a5
    830075d8:	00050693          	mv	a3,a0
    830075dc:	00058713          	mv	a4,a1
    830075e0:	00001797          	auipc	a5,0x1
    830075e4:	01878793          	addi	a5,a5,24 # 830085f8 <__func__.1+0x10>
    830075e8:	02080063          	beqz	a6,83007608 <__assert_func+0x50>
    830075ec:	00001597          	auipc	a1,0x1
    830075f0:	01c58593          	addi	a1,a1,28 # 83008608 <__func__.1+0x20>
    830075f4:	00088513          	mv	a0,a7
    830075f8:	00000097          	auipc	ra,0x0
    830075fc:	074080e7          	jalr	116(ra) # 8300766c <fiprintf>
    83007600:	00000097          	auipc	ra,0x0
    83007604:	0bc080e7          	jalr	188(ra) # 830076bc <abort>
    83007608:	00001797          	auipc	a5,0x1
    8300760c:	a1878793          	addi	a5,a5,-1512 # 83008020 <_ZL11propertyArr+0x98>
    83007610:	00078813          	mv	a6,a5
    83007614:	fd9ff06f          	j	830075ec <__assert_func+0x34>

0000000083007618 <__assert>:
    83007618:	ff010113          	addi	sp,sp,-16
    8300761c:	00060693          	mv	a3,a2
    83007620:	00000613          	li	a2,0
    83007624:	00113423          	sd	ra,8(sp)
    83007628:	00000097          	auipc	ra,0x0
    8300762c:	f90080e7          	jalr	-112(ra) # 830075b8 <__assert_func>

0000000083007630 <_fiprintf_r>:
    83007630:	fb010113          	addi	sp,sp,-80
    83007634:	02810313          	addi	t1,sp,40
    83007638:	02d13423          	sd	a3,40(sp)
    8300763c:	00030693          	mv	a3,t1
    83007640:	00113c23          	sd	ra,24(sp)
    83007644:	02e13823          	sd	a4,48(sp)
    83007648:	02f13c23          	sd	a5,56(sp)
    8300764c:	05013023          	sd	a6,64(sp)
    83007650:	05113423          	sd	a7,72(sp)
    83007654:	00613423          	sd	t1,8(sp)
    83007658:	ffffc097          	auipc	ra,0xffffc
    8300765c:	acc080e7          	jalr	-1332(ra) # 83003124 <_vfiprintf_r>
    83007660:	01813083          	ld	ra,24(sp)
    83007664:	05010113          	addi	sp,sp,80
    83007668:	00008067          	ret

000000008300766c <fiprintf>:
    8300766c:	fb010113          	addi	sp,sp,-80
    83007670:	02010313          	addi	t1,sp,32
    83007674:	02c13023          	sd	a2,32(sp)
    83007678:	02d13423          	sd	a3,40(sp)
    8300767c:	00058613          	mv	a2,a1
    83007680:	00030693          	mv	a3,t1
    83007684:	00050593          	mv	a1,a0
    83007688:	00003517          	auipc	a0,0x3
    8300768c:	fb853503          	ld	a0,-72(a0) # 8300a640 <_impure_ptr>
    83007690:	00113c23          	sd	ra,24(sp)
    83007694:	02e13823          	sd	a4,48(sp)
    83007698:	02f13c23          	sd	a5,56(sp)
    8300769c:	05013023          	sd	a6,64(sp)
    830076a0:	05113423          	sd	a7,72(sp)
    830076a4:	00613423          	sd	t1,8(sp)
    830076a8:	ffffc097          	auipc	ra,0xffffc
    830076ac:	a7c080e7          	jalr	-1412(ra) # 83003124 <_vfiprintf_r>
    830076b0:	01813083          	ld	ra,24(sp)
    830076b4:	05010113          	addi	sp,sp,80
    830076b8:	00008067          	ret

00000000830076bc <abort>:
    830076bc:	ff010113          	addi	sp,sp,-16
    830076c0:	00600513          	li	a0,6
    830076c4:	00113423          	sd	ra,8(sp)
    830076c8:	00000097          	auipc	ra,0x0
    830076cc:	414080e7          	jalr	1044(ra) # 83007adc <raise>
    830076d0:	00100513          	li	a0,1
    830076d4:	00000097          	auipc	ra,0x0
    830076d8:	a08080e7          	jalr	-1528(ra) # 830070dc <_exit>

00000000830076dc <__call_exitprocs>:
    830076dc:	fb010113          	addi	sp,sp,-80
    830076e0:	03413023          	sd	s4,32(sp)
    830076e4:	00003a17          	auipc	s4,0x3
    830076e8:	efca3a03          	ld	s4,-260(s4) # 8300a5e0 <_global_impure_ptr>
    830076ec:	03213823          	sd	s2,48(sp)
    830076f0:	1f8a3903          	ld	s2,504(s4)
    830076f4:	04113423          	sd	ra,72(sp)
    830076f8:	04813023          	sd	s0,64(sp)
    830076fc:	02913c23          	sd	s1,56(sp)
    83007700:	03313423          	sd	s3,40(sp)
    83007704:	01513c23          	sd	s5,24(sp)
    83007708:	01613823          	sd	s6,16(sp)
    8300770c:	01713423          	sd	s7,8(sp)
    83007710:	01813023          	sd	s8,0(sp)
    83007714:	04090063          	beqz	s2,83007754 <__call_exitprocs+0x78>
    83007718:	00050b13          	mv	s6,a0
    8300771c:	00058b93          	mv	s7,a1
    83007720:	00100a93          	li	s5,1
    83007724:	fff00993          	li	s3,-1
    83007728:	00892483          	lw	s1,8(s2)
    8300772c:	fff4841b          	addiw	s0,s1,-1
    83007730:	02044263          	bltz	s0,83007754 <__call_exitprocs+0x78>
    83007734:	00349493          	slli	s1,s1,0x3
    83007738:	009904b3          	add	s1,s2,s1
    8300773c:	040b8463          	beqz	s7,83007784 <__call_exitprocs+0xa8>
    83007740:	2084b783          	ld	a5,520(s1)
    83007744:	05778063          	beq	a5,s7,83007784 <__call_exitprocs+0xa8>
    83007748:	fff4041b          	addiw	s0,s0,-1
    8300774c:	ff848493          	addi	s1,s1,-8
    83007750:	ff3416e3          	bne	s0,s3,8300773c <__call_exitprocs+0x60>
    83007754:	04813083          	ld	ra,72(sp)
    83007758:	04013403          	ld	s0,64(sp)
    8300775c:	03813483          	ld	s1,56(sp)
    83007760:	03013903          	ld	s2,48(sp)
    83007764:	02813983          	ld	s3,40(sp)
    83007768:	02013a03          	ld	s4,32(sp)
    8300776c:	01813a83          	ld	s5,24(sp)
    83007770:	01013b03          	ld	s6,16(sp)
    83007774:	00813b83          	ld	s7,8(sp)
    83007778:	00013c03          	ld	s8,0(sp)
    8300777c:	05010113          	addi	sp,sp,80
    83007780:	00008067          	ret
    83007784:	00892783          	lw	a5,8(s2)
    83007788:	0084b703          	ld	a4,8(s1)
    8300778c:	fff7879b          	addiw	a5,a5,-1
    83007790:	06878263          	beq	a5,s0,830077f4 <__call_exitprocs+0x118>
    83007794:	0004b423          	sd	zero,8(s1)
    83007798:	fa0708e3          	beqz	a4,83007748 <__call_exitprocs+0x6c>
    8300779c:	31092783          	lw	a5,784(s2)
    830077a0:	008a96bb          	sllw	a3,s5,s0
    830077a4:	00892c03          	lw	s8,8(s2)
    830077a8:	00d7f7b3          	and	a5,a5,a3
    830077ac:	0007879b          	sext.w	a5,a5
    830077b0:	02079263          	bnez	a5,830077d4 <__call_exitprocs+0xf8>
    830077b4:	000700e7          	jalr	a4
    830077b8:	00892703          	lw	a4,8(s2)
    830077bc:	1f8a3783          	ld	a5,504(s4)
    830077c0:	01871463          	bne	a4,s8,830077c8 <__call_exitprocs+0xec>
    830077c4:	f92782e3          	beq	a5,s2,83007748 <__call_exitprocs+0x6c>
    830077c8:	f80786e3          	beqz	a5,83007754 <__call_exitprocs+0x78>
    830077cc:	00078913          	mv	s2,a5
    830077d0:	f59ff06f          	j	83007728 <__call_exitprocs+0x4c>
    830077d4:	31492783          	lw	a5,788(s2)
    830077d8:	1084b583          	ld	a1,264(s1)
    830077dc:	00d7f7b3          	and	a5,a5,a3
    830077e0:	0007879b          	sext.w	a5,a5
    830077e4:	00079c63          	bnez	a5,830077fc <__call_exitprocs+0x120>
    830077e8:	000b0513          	mv	a0,s6
    830077ec:	000700e7          	jalr	a4
    830077f0:	fc9ff06f          	j	830077b8 <__call_exitprocs+0xdc>
    830077f4:	00892423          	sw	s0,8(s2)
    830077f8:	fa1ff06f          	j	83007798 <__call_exitprocs+0xbc>
    830077fc:	00058513          	mv	a0,a1
    83007800:	000700e7          	jalr	a4
    83007804:	fb5ff06f          	j	830077b8 <__call_exitprocs+0xdc>

0000000083007808 <_init_signal_r>:
    83007808:	51853783          	ld	a5,1304(a0)
    8300780c:	00078663          	beqz	a5,83007818 <_init_signal_r+0x10>
    83007810:	00000513          	li	a0,0
    83007814:	00008067          	ret
    83007818:	ff010113          	addi	sp,sp,-16
    8300781c:	10000593          	li	a1,256
    83007820:	00813023          	sd	s0,0(sp)
    83007824:	00113423          	sd	ra,8(sp)
    83007828:	00050413          	mv	s0,a0
    8300782c:	ffffd097          	auipc	ra,0xffffd
    83007830:	bf4080e7          	jalr	-1036(ra) # 83004420 <_malloc_r>
    83007834:	50a43c23          	sd	a0,1304(s0)
    83007838:	02050463          	beqz	a0,83007860 <_init_signal_r+0x58>
    8300783c:	10050793          	addi	a5,a0,256
    83007840:	00053023          	sd	zero,0(a0)
    83007844:	00850513          	addi	a0,a0,8
    83007848:	fef51ce3          	bne	a0,a5,83007840 <_init_signal_r+0x38>
    8300784c:	00000513          	li	a0,0
    83007850:	00813083          	ld	ra,8(sp)
    83007854:	00013403          	ld	s0,0(sp)
    83007858:	01010113          	addi	sp,sp,16
    8300785c:	00008067          	ret
    83007860:	fff00513          	li	a0,-1
    83007864:	fedff06f          	j	83007850 <_init_signal_r+0x48>

0000000083007868 <_signal_r>:
    83007868:	fd010113          	addi	sp,sp,-48
    8300786c:	00913c23          	sd	s1,24(sp)
    83007870:	02113423          	sd	ra,40(sp)
    83007874:	02813023          	sd	s0,32(sp)
    83007878:	01f00793          	li	a5,31
    8300787c:	00050493          	mv	s1,a0
    83007880:	02b7ea63          	bltu	a5,a1,830078b4 <_signal_r+0x4c>
    83007884:	51853703          	ld	a4,1304(a0)
    83007888:	00058413          	mv	s0,a1
    8300788c:	04070463          	beqz	a4,830078d4 <_signal_r+0x6c>
    83007890:	00341413          	slli	s0,s0,0x3
    83007894:	00870733          	add	a4,a4,s0
    83007898:	00073503          	ld	a0,0(a4)
    8300789c:	00c73023          	sd	a2,0(a4)
    830078a0:	02813083          	ld	ra,40(sp)
    830078a4:	02013403          	ld	s0,32(sp)
    830078a8:	01813483          	ld	s1,24(sp)
    830078ac:	03010113          	addi	sp,sp,48
    830078b0:	00008067          	ret
    830078b4:	02813083          	ld	ra,40(sp)
    830078b8:	02013403          	ld	s0,32(sp)
    830078bc:	01600793          	li	a5,22
    830078c0:	00f52023          	sw	a5,0(a0)
    830078c4:	01813483          	ld	s1,24(sp)
    830078c8:	fff00513          	li	a0,-1
    830078cc:	03010113          	addi	sp,sp,48
    830078d0:	00008067          	ret
    830078d4:	10000593          	li	a1,256
    830078d8:	00c13423          	sd	a2,8(sp)
    830078dc:	ffffd097          	auipc	ra,0xffffd
    830078e0:	b44080e7          	jalr	-1212(ra) # 83004420 <_malloc_r>
    830078e4:	50a4bc23          	sd	a0,1304(s1)
    830078e8:	00050713          	mv	a4,a0
    830078ec:	02050063          	beqz	a0,8300790c <_signal_r+0xa4>
    830078f0:	00813603          	ld	a2,8(sp)
    830078f4:	00050793          	mv	a5,a0
    830078f8:	10050693          	addi	a3,a0,256
    830078fc:	0007b023          	sd	zero,0(a5)
    83007900:	00878793          	addi	a5,a5,8
    83007904:	fef69ce3          	bne	a3,a5,830078fc <_signal_r+0x94>
    83007908:	f89ff06f          	j	83007890 <_signal_r+0x28>
    8300790c:	fff00513          	li	a0,-1
    83007910:	f91ff06f          	j	830078a0 <_signal_r+0x38>

0000000083007914 <_raise_r>:
    83007914:	fe010113          	addi	sp,sp,-32
    83007918:	00913423          	sd	s1,8(sp)
    8300791c:	00113c23          	sd	ra,24(sp)
    83007920:	00813823          	sd	s0,16(sp)
    83007924:	01f00793          	li	a5,31
    83007928:	00050493          	mv	s1,a0
    8300792c:	0ab7ee63          	bltu	a5,a1,830079e8 <_raise_r+0xd4>
    83007930:	51853783          	ld	a5,1304(a0)
    83007934:	00058413          	mv	s0,a1
    83007938:	04078463          	beqz	a5,83007980 <_raise_r+0x6c>
    8300793c:	00359713          	slli	a4,a1,0x3
    83007940:	00e787b3          	add	a5,a5,a4
    83007944:	0007b703          	ld	a4,0(a5)
    83007948:	02070c63          	beqz	a4,83007980 <_raise_r+0x6c>
    8300794c:	00100693          	li	a3,1
    83007950:	08d70063          	beq	a4,a3,830079d0 <_raise_r+0xbc>
    83007954:	fff00693          	li	a3,-1
    83007958:	04d70c63          	beq	a4,a3,830079b0 <_raise_r+0x9c>
    8300795c:	00058513          	mv	a0,a1
    83007960:	0007b023          	sd	zero,0(a5)
    83007964:	000700e7          	jalr	a4
    83007968:	00000513          	li	a0,0
    8300796c:	01813083          	ld	ra,24(sp)
    83007970:	01013403          	ld	s0,16(sp)
    83007974:	00813483          	ld	s1,8(sp)
    83007978:	02010113          	addi	sp,sp,32
    8300797c:	00008067          	ret
    83007980:	00048513          	mv	a0,s1
    83007984:	00000097          	auipc	ra,0x0
    83007988:	4a0080e7          	jalr	1184(ra) # 83007e24 <_getpid_r>
    8300798c:	00040613          	mv	a2,s0
    83007990:	01013403          	ld	s0,16(sp)
    83007994:	01813083          	ld	ra,24(sp)
    83007998:	00050593          	mv	a1,a0
    8300799c:	00048513          	mv	a0,s1
    830079a0:	00813483          	ld	s1,8(sp)
    830079a4:	02010113          	addi	sp,sp,32
    830079a8:	00000317          	auipc	t1,0x0
    830079ac:	41830067          	jr	1048(t1) # 83007dc0 <_kill_r>
    830079b0:	01813083          	ld	ra,24(sp)
    830079b4:	01013403          	ld	s0,16(sp)
    830079b8:	01600793          	li	a5,22
    830079bc:	00f52023          	sw	a5,0(a0)
    830079c0:	00813483          	ld	s1,8(sp)
    830079c4:	00100513          	li	a0,1
    830079c8:	02010113          	addi	sp,sp,32
    830079cc:	00008067          	ret
    830079d0:	01813083          	ld	ra,24(sp)
    830079d4:	01013403          	ld	s0,16(sp)
    830079d8:	00813483          	ld	s1,8(sp)
    830079dc:	00000513          	li	a0,0
    830079e0:	02010113          	addi	sp,sp,32
    830079e4:	00008067          	ret
    830079e8:	01600793          	li	a5,22
    830079ec:	00f52023          	sw	a5,0(a0)
    830079f0:	fff00513          	li	a0,-1
    830079f4:	f79ff06f          	j	8300796c <_raise_r+0x58>

00000000830079f8 <__sigtramp_r>:
    830079f8:	01f00793          	li	a5,31
    830079fc:	0cb7ec63          	bltu	a5,a1,83007ad4 <__sigtramp_r+0xdc>
    83007a00:	51853703          	ld	a4,1304(a0)
    83007a04:	fe010113          	addi	sp,sp,-32
    83007a08:	00813823          	sd	s0,16(sp)
    83007a0c:	00913423          	sd	s1,8(sp)
    83007a10:	00113c23          	sd	ra,24(sp)
    83007a14:	00058413          	mv	s0,a1
    83007a18:	00050493          	mv	s1,a0
    83007a1c:	06070063          	beqz	a4,83007a7c <__sigtramp_r+0x84>
    83007a20:	00341793          	slli	a5,s0,0x3
    83007a24:	00f70733          	add	a4,a4,a5
    83007a28:	00073783          	ld	a5,0(a4)
    83007a2c:	02078c63          	beqz	a5,83007a64 <__sigtramp_r+0x6c>
    83007a30:	fff00693          	li	a3,-1
    83007a34:	08d78863          	beq	a5,a3,83007ac4 <__sigtramp_r+0xcc>
    83007a38:	00100693          	li	a3,1
    83007a3c:	06d78863          	beq	a5,a3,83007aac <__sigtramp_r+0xb4>
    83007a40:	00040513          	mv	a0,s0
    83007a44:	00073023          	sd	zero,0(a4)
    83007a48:	000780e7          	jalr	a5
    83007a4c:	00000513          	li	a0,0
    83007a50:	01813083          	ld	ra,24(sp)
    83007a54:	01013403          	ld	s0,16(sp)
    83007a58:	00813483          	ld	s1,8(sp)
    83007a5c:	02010113          	addi	sp,sp,32
    83007a60:	00008067          	ret
    83007a64:	01813083          	ld	ra,24(sp)
    83007a68:	01013403          	ld	s0,16(sp)
    83007a6c:	00813483          	ld	s1,8(sp)
    83007a70:	00100513          	li	a0,1
    83007a74:	02010113          	addi	sp,sp,32
    83007a78:	00008067          	ret
    83007a7c:	10000593          	li	a1,256
    83007a80:	ffffd097          	auipc	ra,0xffffd
    83007a84:	9a0080e7          	jalr	-1632(ra) # 83004420 <_malloc_r>
    83007a88:	50a4bc23          	sd	a0,1304(s1)
    83007a8c:	00050713          	mv	a4,a0
    83007a90:	02050e63          	beqz	a0,83007acc <__sigtramp_r+0xd4>
    83007a94:	00050793          	mv	a5,a0
    83007a98:	10050693          	addi	a3,a0,256
    83007a9c:	0007b023          	sd	zero,0(a5)
    83007aa0:	00878793          	addi	a5,a5,8
    83007aa4:	fed79ce3          	bne	a5,a3,83007a9c <__sigtramp_r+0xa4>
    83007aa8:	f79ff06f          	j	83007a20 <__sigtramp_r+0x28>
    83007aac:	01813083          	ld	ra,24(sp)
    83007ab0:	01013403          	ld	s0,16(sp)
    83007ab4:	00813483          	ld	s1,8(sp)
    83007ab8:	00300513          	li	a0,3
    83007abc:	02010113          	addi	sp,sp,32
    83007ac0:	00008067          	ret
    83007ac4:	00200513          	li	a0,2
    83007ac8:	f89ff06f          	j	83007a50 <__sigtramp_r+0x58>
    83007acc:	fff00513          	li	a0,-1
    83007ad0:	f81ff06f          	j	83007a50 <__sigtramp_r+0x58>
    83007ad4:	fff00513          	li	a0,-1
    83007ad8:	00008067          	ret

0000000083007adc <raise>:
    83007adc:	fe010113          	addi	sp,sp,-32
    83007ae0:	00913423          	sd	s1,8(sp)
    83007ae4:	00113c23          	sd	ra,24(sp)
    83007ae8:	00813823          	sd	s0,16(sp)
    83007aec:	01f00793          	li	a5,31
    83007af0:	00003497          	auipc	s1,0x3
    83007af4:	b504b483          	ld	s1,-1200(s1) # 8300a640 <_impure_ptr>
    83007af8:	0aa7ec63          	bltu	a5,a0,83007bb0 <raise+0xd4>
    83007afc:	5184b783          	ld	a5,1304(s1)
    83007b00:	00050413          	mv	s0,a0
    83007b04:	04078263          	beqz	a5,83007b48 <raise+0x6c>
    83007b08:	00351713          	slli	a4,a0,0x3
    83007b0c:	00e787b3          	add	a5,a5,a4
    83007b10:	0007b703          	ld	a4,0(a5)
    83007b14:	02070a63          	beqz	a4,83007b48 <raise+0x6c>
    83007b18:	00100693          	li	a3,1
    83007b1c:	06d70e63          	beq	a4,a3,83007b98 <raise+0xbc>
    83007b20:	fff00693          	li	a3,-1
    83007b24:	04d70a63          	beq	a4,a3,83007b78 <raise+0x9c>
    83007b28:	0007b023          	sd	zero,0(a5)
    83007b2c:	000700e7          	jalr	a4
    83007b30:	00000513          	li	a0,0
    83007b34:	01813083          	ld	ra,24(sp)
    83007b38:	01013403          	ld	s0,16(sp)
    83007b3c:	00813483          	ld	s1,8(sp)
    83007b40:	02010113          	addi	sp,sp,32
    83007b44:	00008067          	ret
    83007b48:	00048513          	mv	a0,s1
    83007b4c:	00000097          	auipc	ra,0x0
    83007b50:	2d8080e7          	jalr	728(ra) # 83007e24 <_getpid_r>
    83007b54:	00040613          	mv	a2,s0
    83007b58:	01013403          	ld	s0,16(sp)
    83007b5c:	01813083          	ld	ra,24(sp)
    83007b60:	00050593          	mv	a1,a0
    83007b64:	00048513          	mv	a0,s1
    83007b68:	00813483          	ld	s1,8(sp)
    83007b6c:	02010113          	addi	sp,sp,32
    83007b70:	00000317          	auipc	t1,0x0
    83007b74:	25030067          	jr	592(t1) # 83007dc0 <_kill_r>
    83007b78:	01813083          	ld	ra,24(sp)
    83007b7c:	01013403          	ld	s0,16(sp)
    83007b80:	01600793          	li	a5,22
    83007b84:	00f4a023          	sw	a5,0(s1)
    83007b88:	00100513          	li	a0,1
    83007b8c:	00813483          	ld	s1,8(sp)
    83007b90:	02010113          	addi	sp,sp,32
    83007b94:	00008067          	ret
    83007b98:	01813083          	ld	ra,24(sp)
    83007b9c:	01013403          	ld	s0,16(sp)
    83007ba0:	00813483          	ld	s1,8(sp)
    83007ba4:	00000513          	li	a0,0
    83007ba8:	02010113          	addi	sp,sp,32
    83007bac:	00008067          	ret
    83007bb0:	01600793          	li	a5,22
    83007bb4:	00f4a023          	sw	a5,0(s1)
    83007bb8:	fff00513          	li	a0,-1
    83007bbc:	f79ff06f          	j	83007b34 <raise+0x58>

0000000083007bc0 <signal>:
    83007bc0:	fe010113          	addi	sp,sp,-32
    83007bc4:	01213023          	sd	s2,0(sp)
    83007bc8:	00113c23          	sd	ra,24(sp)
    83007bcc:	00813823          	sd	s0,16(sp)
    83007bd0:	00913423          	sd	s1,8(sp)
    83007bd4:	01f00793          	li	a5,31
    83007bd8:	00003917          	auipc	s2,0x3
    83007bdc:	a6893903          	ld	s2,-1432(s2) # 8300a640 <_impure_ptr>
    83007be0:	02a7ee63          	bltu	a5,a0,83007c1c <signal+0x5c>
    83007be4:	00050413          	mv	s0,a0
    83007be8:	51893503          	ld	a0,1304(s2)
    83007bec:	00058493          	mv	s1,a1
    83007bf0:	04050863          	beqz	a0,83007c40 <signal+0x80>
    83007bf4:	00341413          	slli	s0,s0,0x3
    83007bf8:	008507b3          	add	a5,a0,s0
    83007bfc:	0007b503          	ld	a0,0(a5)
    83007c00:	0097b023          	sd	s1,0(a5)
    83007c04:	01813083          	ld	ra,24(sp)
    83007c08:	01013403          	ld	s0,16(sp)
    83007c0c:	00813483          	ld	s1,8(sp)
    83007c10:	00013903          	ld	s2,0(sp)
    83007c14:	02010113          	addi	sp,sp,32
    83007c18:	00008067          	ret
    83007c1c:	01813083          	ld	ra,24(sp)
    83007c20:	01013403          	ld	s0,16(sp)
    83007c24:	01600793          	li	a5,22
    83007c28:	00f92023          	sw	a5,0(s2)
    83007c2c:	00813483          	ld	s1,8(sp)
    83007c30:	00013903          	ld	s2,0(sp)
    83007c34:	fff00513          	li	a0,-1
    83007c38:	02010113          	addi	sp,sp,32
    83007c3c:	00008067          	ret
    83007c40:	10000593          	li	a1,256
    83007c44:	00090513          	mv	a0,s2
    83007c48:	ffffc097          	auipc	ra,0xffffc
    83007c4c:	7d8080e7          	jalr	2008(ra) # 83004420 <_malloc_r>
    83007c50:	50a93c23          	sd	a0,1304(s2)
    83007c54:	00050e63          	beqz	a0,83007c70 <signal+0xb0>
    83007c58:	00050793          	mv	a5,a0
    83007c5c:	10050713          	addi	a4,a0,256
    83007c60:	0007b023          	sd	zero,0(a5)
    83007c64:	00878793          	addi	a5,a5,8
    83007c68:	fef71ce3          	bne	a4,a5,83007c60 <signal+0xa0>
    83007c6c:	f89ff06f          	j	83007bf4 <signal+0x34>
    83007c70:	fff00513          	li	a0,-1
    83007c74:	f91ff06f          	j	83007c04 <signal+0x44>

0000000083007c78 <_init_signal>:
    83007c78:	ff010113          	addi	sp,sp,-16
    83007c7c:	00813023          	sd	s0,0(sp)
    83007c80:	00003417          	auipc	s0,0x3
    83007c84:	9c043403          	ld	s0,-1600(s0) # 8300a640 <_impure_ptr>
    83007c88:	51843783          	ld	a5,1304(s0)
    83007c8c:	00113423          	sd	ra,8(sp)
    83007c90:	00078c63          	beqz	a5,83007ca8 <_init_signal+0x30>
    83007c94:	00000513          	li	a0,0
    83007c98:	00813083          	ld	ra,8(sp)
    83007c9c:	00013403          	ld	s0,0(sp)
    83007ca0:	01010113          	addi	sp,sp,16
    83007ca4:	00008067          	ret
    83007ca8:	10000593          	li	a1,256
    83007cac:	00040513          	mv	a0,s0
    83007cb0:	ffffc097          	auipc	ra,0xffffc
    83007cb4:	770080e7          	jalr	1904(ra) # 83004420 <_malloc_r>
    83007cb8:	50a43c23          	sd	a0,1304(s0)
    83007cbc:	00050c63          	beqz	a0,83007cd4 <_init_signal+0x5c>
    83007cc0:	10050793          	addi	a5,a0,256
    83007cc4:	00053023          	sd	zero,0(a0)
    83007cc8:	00850513          	addi	a0,a0,8
    83007ccc:	fef51ce3          	bne	a0,a5,83007cc4 <_init_signal+0x4c>
    83007cd0:	fc5ff06f          	j	83007c94 <_init_signal+0x1c>
    83007cd4:	fff00513          	li	a0,-1
    83007cd8:	fc1ff06f          	j	83007c98 <_init_signal+0x20>

0000000083007cdc <__sigtramp>:
    83007cdc:	fe010113          	addi	sp,sp,-32
    83007ce0:	00913423          	sd	s1,8(sp)
    83007ce4:	00113c23          	sd	ra,24(sp)
    83007ce8:	00813823          	sd	s0,16(sp)
    83007cec:	01f00793          	li	a5,31
    83007cf0:	00003497          	auipc	s1,0x3
    83007cf4:	9504b483          	ld	s1,-1712(s1) # 8300a640 <_impure_ptr>
    83007cf8:	0ca7e063          	bltu	a5,a0,83007db8 <__sigtramp+0xdc>
    83007cfc:	5184b703          	ld	a4,1304(s1)
    83007d00:	00050413          	mv	s0,a0
    83007d04:	06070063          	beqz	a4,83007d64 <__sigtramp+0x88>
    83007d08:	00341793          	slli	a5,s0,0x3
    83007d0c:	00f70733          	add	a4,a4,a5
    83007d10:	00073783          	ld	a5,0(a4)
    83007d14:	02078c63          	beqz	a5,83007d4c <__sigtramp+0x70>
    83007d18:	fff00693          	li	a3,-1
    83007d1c:	08d78a63          	beq	a5,a3,83007db0 <__sigtramp+0xd4>
    83007d20:	00100693          	li	a3,1
    83007d24:	06d78a63          	beq	a5,a3,83007d98 <__sigtramp+0xbc>
    83007d28:	00040513          	mv	a0,s0
    83007d2c:	00073023          	sd	zero,0(a4)
    83007d30:	000780e7          	jalr	a5
    83007d34:	00000513          	li	a0,0
    83007d38:	01813083          	ld	ra,24(sp)
    83007d3c:	01013403          	ld	s0,16(sp)
    83007d40:	00813483          	ld	s1,8(sp)
    83007d44:	02010113          	addi	sp,sp,32
    83007d48:	00008067          	ret
    83007d4c:	01813083          	ld	ra,24(sp)
    83007d50:	01013403          	ld	s0,16(sp)
    83007d54:	00813483          	ld	s1,8(sp)
    83007d58:	00100513          	li	a0,1
    83007d5c:	02010113          	addi	sp,sp,32
    83007d60:	00008067          	ret
    83007d64:	10000593          	li	a1,256
    83007d68:	00048513          	mv	a0,s1
    83007d6c:	ffffc097          	auipc	ra,0xffffc
    83007d70:	6b4080e7          	jalr	1716(ra) # 83004420 <_malloc_r>
    83007d74:	50a4bc23          	sd	a0,1304(s1)
    83007d78:	00050713          	mv	a4,a0
    83007d7c:	02050e63          	beqz	a0,83007db8 <__sigtramp+0xdc>
    83007d80:	00050793          	mv	a5,a0
    83007d84:	10050693          	addi	a3,a0,256
    83007d88:	0007b023          	sd	zero,0(a5)
    83007d8c:	00878793          	addi	a5,a5,8
    83007d90:	fed79ce3          	bne	a5,a3,83007d88 <__sigtramp+0xac>
    83007d94:	f75ff06f          	j	83007d08 <__sigtramp+0x2c>
    83007d98:	01813083          	ld	ra,24(sp)
    83007d9c:	01013403          	ld	s0,16(sp)
    83007da0:	00813483          	ld	s1,8(sp)
    83007da4:	00300513          	li	a0,3
    83007da8:	02010113          	addi	sp,sp,32
    83007dac:	00008067          	ret
    83007db0:	00200513          	li	a0,2
    83007db4:	f85ff06f          	j	83007d38 <__sigtramp+0x5c>
    83007db8:	fff00513          	li	a0,-1
    83007dbc:	f7dff06f          	j	83007d38 <__sigtramp+0x5c>

0000000083007dc0 <_kill_r>:
    83007dc0:	ff010113          	addi	sp,sp,-16
    83007dc4:	00058713          	mv	a4,a1
    83007dc8:	00813023          	sd	s0,0(sp)
    83007dcc:	00060593          	mv	a1,a2
    83007dd0:	00050413          	mv	s0,a0
    83007dd4:	00070513          	mv	a0,a4
    83007dd8:	00003797          	auipc	a5,0x3
    83007ddc:	8a07a423          	sw	zero,-1880(a5) # 8300a680 <errno>
    83007de0:	00113423          	sd	ra,8(sp)
    83007de4:	fffff097          	auipc	ra,0xfffff
    83007de8:	3fc080e7          	jalr	1020(ra) # 830071e0 <_kill>
    83007dec:	fff00793          	li	a5,-1
    83007df0:	00f50a63          	beq	a0,a5,83007e04 <_kill_r+0x44>
    83007df4:	00813083          	ld	ra,8(sp)
    83007df8:	00013403          	ld	s0,0(sp)
    83007dfc:	01010113          	addi	sp,sp,16
    83007e00:	00008067          	ret
    83007e04:	00003797          	auipc	a5,0x3
    83007e08:	87c7a783          	lw	a5,-1924(a5) # 8300a680 <errno>
    83007e0c:	fe0784e3          	beqz	a5,83007df4 <_kill_r+0x34>
    83007e10:	00813083          	ld	ra,8(sp)
    83007e14:	00f42023          	sw	a5,0(s0)
    83007e18:	00013403          	ld	s0,0(sp)
    83007e1c:	01010113          	addi	sp,sp,16
    83007e20:	00008067          	ret

0000000083007e24 <_getpid_r>:
    83007e24:	fffff317          	auipc	t1,0xfffff
    83007e28:	3d030067          	jr	976(t1) # 830071f4 <_getpid>
